; ModuleID = 'main.7rcbfp3g-cgu.0'
source_filename = "main.7rcbfp3g-cgu.0"
target datalayout = "e-m:o-i64:64-f80:128-n8:16:32:64-S128"
target triple = "x86_64-apple-macosx10.7.0"

%"core::alloc::layout::LayoutErr" = type { [0 x i8], {}, [0 x i8] }
%"core::fmt::Formatter" = type { [0 x i64], { i64, i64 }, [0 x i64], { i64, i64 }, [0 x i64], { {}*, [3 x i64]* }, [0 x i32], i32, [0 x i32], i32, [0 x i8], i8, [7 x i8] }
%"alloc::string::String" = type { [0 x i64], %"alloc::vec::Vec<u8>", [0 x i64] }
%"alloc::vec::Vec<u8>" = type { [0 x i64], { i8*, i64 }, [0 x i64], i64, [0 x i64] }
%"core::panic::Location" = type { [0 x i64], { [0 x i8]*, i64 }, [0 x i32], i32, [0 x i32], i32, [0 x i32] }
%"core::fmt::Arguments" = type { [0 x i64], { [0 x { [0 x i8]*, i64 }]*, i64 }, [0 x i64], { i64*, i64 }, [0 x i64], { [0 x { i8*, i8* }]*, i64 }, [0 x i64] }
%"core::fmt::::Opaque" = type {}
%"test_extention_method_on_vector::Wrapper" = type { [0 x i64], %"alloc::vec::Vec<alloc::string::String>", [0 x i64] }
%"alloc::vec::Vec<alloc::string::String>" = type { [0 x i64], { i64*, i64 }, [0 x i64], i64, [0 x i64] }
%"core::option::Option<usize>::Some" = type { [1 x i64], i64, [0 x i64] }
%"core::ptr::Repr<u8>" = type { [2 x i64] }
%"core::ptr::Repr<alloc::string::String>" = type { [2 x i64] }
%"core::marker::PhantomData<alloc::string::String>" = type {}
%"core::marker::PhantomData<[alloc::string::String]>" = type {}
%"core::marker::PhantomData<u8>" = type {}
%"core::str::{{impl}}::as_bytes::Slices" = type { [2 x i64] }
%"core::result::Result<usize, core::option::NoneError>::Ok" = type { [1 x i64], i64, [0 x i64] }
%"alloc::str::join_generic_copy::{{closure}}::{{closure}}<str, u8, alloc::string::String>" = type {}
%"core::result::Result<core::alloc::layout::Layout, core::alloc::layout::LayoutErr>::Err" = type { [0 x i8], %"core::alloc::layout::LayoutErr", [0 x i8] }
%"core::result::Result<(core::alloc::layout::Layout, usize), core::alloc::layout::LayoutErr>" = type { [1 x i64], i64, [1 x i64] }
%"core::result::Result<(core::alloc::layout::Layout, usize), core::alloc::layout::LayoutErr>::Ok" = type { [0 x i64], { [0 x i64], { i64, i64 }, [0 x i64], i64, [0 x i64] }, [0 x i64] }
%"core::result::Result<usize, core::alloc::layout::LayoutErr>::Ok" = type { [1 x i64], i64, [0 x i64] }
%"core::marker::PhantomData<&alloc::string::String>" = type {}
%"core::marker::PhantomData<&u8>" = type {}
%"core::result::Result<usize, core::alloc::layout::LayoutErr>::Err" = type { [8 x i8], %"core::alloc::layout::LayoutErr", [0 x i8] }
%"core::result::Result<core::ptr::non_null::NonNull<u8>, core::alloc::AllocErr>::Err" = type { [0 x i8], %"core::alloc::AllocErr", [0 x i8] }
%"core::alloc::AllocErr" = type {}
%"core::result::Result<usize, core::option::NoneError>::Err" = type { [8 x i8], %"core::option::NoneError", [0 x i8] }
%"core::option::NoneError" = type {}
%"core::result::Result<usize, alloc::collections::TryReserveError>" = type { [0 x i64], i64, [2 x i64] }
%"core::result::Result<usize, alloc::collections::TryReserveError>::Err" = type { [1 x i64], { i64, i64 }, [0 x i64] }
%"core::result::Result<usize, alloc::collections::TryReserveError>::Ok" = type { [1 x i64], i64, [0 x i64] }
%"core::result::Result<(), alloc::collections::TryReserveError>" = type { [0 x i64], i64, [2 x i64] }
%"core::result::Result<(), alloc::collections::TryReserveError>::Err" = type { [1 x i64], { i64, i64 }, [0 x i64] }
%"core::result::Result<core::alloc::layout::Layout, alloc::collections::TryReserveError>" = type { [0 x i64], i64, [2 x i64] }
%"core::result::Result<core::alloc::layout::Layout, alloc::collections::TryReserveError>::Ok" = type { [1 x i64], { i64, i64 }, [0 x i64] }
%"core::result::Result<core::alloc::layout::Layout, alloc::collections::TryReserveError>::Err" = type { [1 x i64], { i64, i64 }, [0 x i64] }
%"core::result::Result<core::alloc::MemoryBlock, alloc::collections::TryReserveError>" = type { [0 x i64], i64, [2 x i64] }
%"core::result::Result<core::alloc::MemoryBlock, alloc::collections::TryReserveError>::Ok" = type { [1 x i64], { i8*, i64 }, [0 x i64] }
%"core::result::Result<core::alloc::MemoryBlock, alloc::collections::TryReserveError>::Err" = type { [1 x i64], { i64, i64 }, [0 x i64] }
%"alloc::alloc::Global" = type {}
%"core::result::Result<(), alloc::collections::TryReserveError>::Ok" = type { [8 x i8], {}, [0 x i8] }
%"alloc::raw_vec::{{impl}}::allocate_in::{{closure}}<u8, alloc::alloc::Global>.0" = type {}
%"alloc::raw_vec::{{impl}}::allocate_in::{{closure}}<u8, alloc::alloc::Global>" = type {}
%"alloc::raw_vec::Strategy" = type { [0 x i64], i64, [2 x i64] }
%"alloc::raw_vec::Strategy::Amortized" = type { [1 x i64], i64, [0 x i64], i64, [0 x i64] }
%"core::option::Option<(core::ptr::non_null::NonNull<u8>, core::alloc::layout::Layout)>" = type { [0 x i64], {}*, [2 x i64] }
%"core::option::Option<(core::ptr::non_null::NonNull<u8>, core::alloc::layout::Layout)>::Some" = type { [0 x i64], { [0 x i64], i8*, [0 x i64], { i64, i64 }, [0 x i64] }, [0 x i64] }
%"alloc::raw_vec::{{impl}}::grow::{{closure}}<u8, alloc::alloc::Global>" = type {}
%"alloc::raw_vec::{{impl}}::grow::{{closure}}<u8, alloc::alloc::Global>.1" = type {}
%"alloc::raw_vec::Strategy::Exact" = type { [1 x i64], i64, [0 x i64], i64, [0 x i64] }
%"core::result::Result<core::alloc::MemoryBlock, core::alloc::AllocErr>::Err" = type { [0 x i8], %"core::alloc::AllocErr", [0 x i8] }
%"core::result::Result<(core::alloc::layout::Layout, usize), core::alloc::layout::LayoutErr>::Err" = type { [0 x i8], %"core::alloc::layout::LayoutErr", [0 x i8] }
%"unwind::libunwind::_Unwind_Exception" = type { [0 x i64], i64, [0 x i64], void (i32, %"unwind::libunwind::_Unwind_Exception"*)*, [0 x i64], [6 x i64], [0 x i64] }
%"unwind::libunwind::_Unwind_Context" = type { [0 x i8] }

@vtable.0 = private unnamed_addr constant { void (i8**)*, i64, i64, i32 (i8**)*, i32 (i8**)*, i32 (i8**)* } { void (i8**)* @_ZN4core3ptr13drop_in_place17haa61707809ad2124E, i64 8, i64 8, i32 (i8**)* @"_ZN3std2rt10lang_start28_$u7b$$u7b$closure$u7d$$u7d$17h2d05dfa6026e0b07E", i32 (i8**)* @"_ZN3std2rt10lang_start28_$u7b$$u7b$closure$u7d$$u7d$17h2d05dfa6026e0b07E", i32 (i8**)* @"_ZN4core3ops8function6FnOnce40call_once$u7b$$u7b$vtable.shim$u7d$$u7d$17hfc1b87f6245fe9a0E" }, align 8
@alloc56 = private unnamed_addr constant <{ [120 x i8] }> <{ [120 x i8] c"/Users/hirakawa.yoshihito/.rustup/toolchains/stable-x86_64-apple-darwin/lib/rustlib/src/rust/src/libcore/alloc/layout.rs" }>, align 1
@alloc57 = private unnamed_addr constant <{ i8*, [16 x i8] }> <{ i8* getelementptr inbounds (<{ [120 x i8] }>, <{ [120 x i8] }>* @alloc56, i32 0, i32 0, i32 0), [16 x i8] c"x\00\00\00\00\00\00\00\E7\00\00\00\09\00\00\00" }>, align 8
@alloc58 = private unnamed_addr constant <{ [28 x i8] }> <{ [28 x i8] c"assertion failed: mid <= len" }>, align 1
@alloc59 = private unnamed_addr constant <{ [118 x i8] }> <{ [118 x i8] c"/Users/hirakawa.yoshihito/.rustup/toolchains/stable-x86_64-apple-darwin/lib/rustlib/src/rust/src/libcore/macros/mod.rs" }>, align 1
@alloc60 = private unnamed_addr constant <{ i8*, [16 x i8] }> <{ i8* getelementptr inbounds (<{ [118 x i8] }>, <{ [118 x i8] }>* @alloc59, i32 0, i32 0, i32 0), [16 x i8] c"v\00\00\00\00\00\00\00\22\00\00\00\09\00\00\00" }>, align 8
@alloc11 = private unnamed_addr constant <{ [45 x i8] }> <{ [45 x i8] c"assertion failed: `(left == right)`\0A  left: `" }>, align 1
@alloc12 = private unnamed_addr constant <{ [12 x i8] }> <{ [12 x i8] c"`,\0A right: `" }>, align 1
@alloc13 = private unnamed_addr constant <{ [3 x i8] }> <{ [3 x i8] c"`: " }>, align 1
@alloc14 = private unnamed_addr constant <{ i8*, [8 x i8], i8*, [8 x i8], i8*, [8 x i8] }> <{ i8* getelementptr inbounds (<{ [45 x i8] }>, <{ [45 x i8] }>* @alloc11, i32 0, i32 0, i32 0), [8 x i8] c"-\00\00\00\00\00\00\00", i8* getelementptr inbounds (<{ [12 x i8] }>, <{ [12 x i8] }>* @alloc12, i32 0, i32 0, i32 0), [8 x i8] c"\0C\00\00\00\00\00\00\00", i8* getelementptr inbounds (<{ [3 x i8] }>, <{ [3 x i8] }>* @alloc13, i32 0, i32 0, i32 0), [8 x i8] c"\03\00\00\00\00\00\00\00" }>, align 8
@0 = private unnamed_addr constant <{ i8*, [0 x i8] }> <{ i8* bitcast (<{ i8*, [8 x i8], i8*, [8 x i8], i8*, [8 x i8] }>* @alloc14 to i8*), [0 x i8] zeroinitializer }>, align 8
@alloc16 = private unnamed_addr constant <{ [52 x i8] }> <{ [52 x i8] c"destination and source slices have different lengths" }>, align 1
@alloc17 = private unnamed_addr constant <{ i8*, [8 x i8] }> <{ i8* getelementptr inbounds (<{ [52 x i8] }>, <{ [52 x i8] }>* @alloc16, i32 0, i32 0, i32 0), [8 x i8] c"4\00\00\00\00\00\00\00" }>, align 8
@1 = private unnamed_addr constant <{ i8*, [0 x i8] }> <{ i8* bitcast (<{ i8*, [8 x i8] }>* @alloc17 to i8*), [0 x i8] zeroinitializer }>, align 8
@alloc19 = private unnamed_addr constant <{ [0 x i8] }> zeroinitializer, align 8
@2 = private unnamed_addr constant <{ i8*, [0 x i8] }> <{ i8* getelementptr inbounds (<{ [0 x i8] }>, <{ [0 x i8] }>* @alloc19, i32 0, i32 0, i32 0), [0 x i8] zeroinitializer }>, align 8
@alloc62 = private unnamed_addr constant <{ i8*, [16 x i8] }> <{ i8* getelementptr inbounds (<{ [118 x i8] }>, <{ [118 x i8] }>* @alloc59, i32 0, i32 0, i32 0), [16 x i8] c"v\00\00\00\00\00\00\00(\00\00\00\09\00\00\00" }>, align 8
@alloc63 = private unnamed_addr constant <{ [43 x i8] }> <{ [43 x i8] c"called `Result::unwrap()` on an `Err` value" }>, align 1
@vtable.1 = private unnamed_addr constant { void (%"core::alloc::layout::LayoutErr"*)*, i64, i64, i1 (%"core::alloc::layout::LayoutErr"*, %"core::fmt::Formatter"*)* } { void (%"core::alloc::layout::LayoutErr"*)* @_ZN4core3ptr13drop_in_place17h058b07e24c4cbe62E, i64 0, i64 1, i1 (%"core::alloc::layout::LayoutErr"*, %"core::fmt::Formatter"*)* @"_ZN67_$LT$core..alloc..layout..LayoutErr$u20$as$u20$core..fmt..Debug$GT$3fmt17h888909335093f903E" }, align 8
@alloc64 = private unnamed_addr constant <{ [53 x i8] }> <{ [53 x i8] c"attempt to join into collection with len > usize::MAX" }>, align 1
@alloc68 = private unnamed_addr constant <{ [112 x i8] }> <{ [112 x i8] c"/Users/hirakawa.yoshihito/.rustup/toolchains/stable-x86_64-apple-darwin/lib/rustlib/src/rust/src/liballoc/str.rs" }>, align 1
@alloc66 = private unnamed_addr constant <{ i8*, [16 x i8] }> <{ i8* getelementptr inbounds (<{ [112 x i8] }>, <{ [112 x i8] }>* @alloc68, i32 0, i32 0, i32 0), [16 x i8] c"p\00\00\00\00\00\00\00\9C\00\00\00\0F\00\00\00" }>, align 8
@alloc67 = private unnamed_addr constant <{ [42 x i8] }> <{ [42 x i8] c"assertion failed: result.capacity() >= len" }>, align 1
@alloc69 = private unnamed_addr constant <{ i8*, [16 x i8] }> <{ i8* getelementptr inbounds (<{ [112 x i8] }>, <{ [112 x i8] }>* @alloc68, i32 0, i32 0, i32 0), [16 x i8] c"p\00\00\00\00\00\00\00\BC\00\00\00\0A\00\00\00" }>, align 8
@3 = private unnamed_addr constant <{ [16 x i8] }> <{ [16 x i8] c"\01\00\00\00\00\00\00\00\00\00\00\00\00\00\00\00" }>, align 8
@alloc70 = private unnamed_addr constant <{ [116 x i8] }> <{ [116 x i8] c"/Users/hirakawa.yoshihito/.rustup/toolchains/stable-x86_64-apple-darwin/lib/rustlib/src/rust/src/liballoc/raw_vec.rs" }>, align 1
@alloc71 = private unnamed_addr constant <{ i8*, [16 x i8] }> <{ i8* getelementptr inbounds (<{ [116 x i8] }>, <{ [116 x i8] }>* @alloc70, i32 0, i32 0, i32 0), [16 x i8] c"t\00\00\00\00\00\00\00\D4\01\00\00\09\00\00\00" }>, align 8
@str.2 = internal constant [25 x i8] c"attempt to divide by zero"
@alloc72 = private unnamed_addr constant <{ [112 x i8] }> <{ [112 x i8] c"/Users/hirakawa.yoshihito/.rustup/toolchains/stable-x86_64-apple-darwin/lib/rustlib/src/rust/src/liballoc/vec.rs" }>, align 1
@alloc73 = private unnamed_addr constant <{ i8*, [16 x i8] }> <{ i8* getelementptr inbounds (<{ [112 x i8] }>, <{ [112 x i8] }>* @alloc72, i32 0, i32 0, i32 0), [16 x i8] c"p\00\00\00\00\00\00\00N\09\00\00%\00\00\00" }>, align 8
@alloc74 = private unnamed_addr constant <{ [5 x i8] }> <{ [5 x i8] c"hello" }>, align 1
@alloc75 = private unnamed_addr constant <{ [5 x i8] }> <{ [5 x i8] c"world" }>, align 1
@alloc3 = private unnamed_addr constant <{ [4 x i8] }> <{ [4 x i8] c"w = " }>, align 1
@alloc4 = private unnamed_addr constant <{ [1 x i8] }> <{ [1 x i8] c"\0A" }>, align 1
@alloc5 = private unnamed_addr constant <{ i8*, [8 x i8], i8*, [8 x i8] }> <{ i8* getelementptr inbounds (<{ [4 x i8] }>, <{ [4 x i8] }>* @alloc3, i32 0, i32 0, i32 0), [8 x i8] c"\04\00\00\00\00\00\00\00", i8* getelementptr inbounds (<{ [1 x i8] }>, <{ [1 x i8] }>* @alloc4, i32 0, i32 0, i32 0), [8 x i8] c"\01\00\00\00\00\00\00\00" }>, align 8
@4 = private unnamed_addr constant <{ i8*, [0 x i8] }> <{ i8* bitcast (<{ i8*, [8 x i8], i8*, [8 x i8] }>* @alloc5 to i8*), [0 x i8] zeroinitializer }>, align 8
@alloc22 = private unnamed_addr constant <{ [1 x i8] }> <{ [1 x i8] c"[" }>, align 1
@alloc23 = private unnamed_addr constant <{ [1 x i8] }> <{ [1 x i8] c"]" }>, align 1
@alloc24 = private unnamed_addr constant <{ i8*, [8 x i8], i8*, [8 x i8] }> <{ i8* getelementptr inbounds (<{ [1 x i8] }>, <{ [1 x i8] }>* @alloc22, i32 0, i32 0, i32 0), [8 x i8] c"\01\00\00\00\00\00\00\00", i8* getelementptr inbounds (<{ [1 x i8] }>, <{ [1 x i8] }>* @alloc23, i32 0, i32 0, i32 0), [8 x i8] c"\01\00\00\00\00\00\00\00" }>, align 8
@5 = private unnamed_addr constant <{ i8*, [0 x i8] }> <{ i8* bitcast (<{ i8*, [8 x i8], i8*, [8 x i8] }>* @alloc24 to i8*), [0 x i8] zeroinitializer }>, align 8
@alloc76 = private unnamed_addr constant <{ [2 x i8] }> <{ [2 x i8] c", " }>, align 1

; <alloc::string::String as core::ops::index::Index<core::ops::range::RangeFull>>::index
; Function Attrs: inlinehint uwtable
define internal { [0 x i8]*, i64 } @"_ZN100_$LT$alloc..string..String$u20$as$u20$core..ops..index..Index$LT$core..ops..range..RangeFull$GT$$GT$5index17had5c3bc4aa093398E"(%"alloc::string::String"* noalias readonly align 8 dereferenceable(24) %self, %"core::panic::Location"* noalias readonly align 8 dereferenceable(24)) unnamed_addr #0 {
start:
  %_7 = bitcast %"alloc::string::String"* %self to %"alloc::vec::Vec<u8>"*
; call <alloc::vec::Vec<T> as core::ops::deref::Deref>::deref
  %1 = call { [0 x i8]*, i64 } @"_ZN68_$LT$alloc..vec..Vec$LT$T$GT$$u20$as$u20$core..ops..deref..Deref$GT$5deref17hc629356f290ae8e4E"(%"alloc::vec::Vec<u8>"* noalias readonly align 8 dereferenceable(24) %_7)
  %_5.0 = extractvalue { [0 x i8]*, i64 } %1, 0
  %_5.1 = extractvalue { [0 x i8]*, i64 } %1, 1
  br label %bb1

bb1:                                              ; preds = %start
; call core::str::from_utf8_unchecked
  %2 = call { [0 x i8]*, i64 } @_ZN4core3str19from_utf8_unchecked17h4db3c2a367690b11E([0 x i8]* noalias nonnull readonly align 1 %_5.0, i64 %_5.1)
  %_3.0 = extractvalue { [0 x i8]*, i64 } %2, 0
  %_3.1 = extractvalue { [0 x i8]*, i64 } %2, 1
  br label %bb2

bb2:                                              ; preds = %bb1
  %3 = insertvalue { [0 x i8]*, i64 } undef, [0 x i8]* %_3.0, 0
  %4 = insertvalue { [0 x i8]*, i64 } %3, i64 %_3.1, 1
  ret { [0 x i8]*, i64 } %4
}

; <alloc::vec::Vec<T> as alloc::vec::SpecExtend<&T,core::slice::Iter<T>>>::spec_extend
; Function Attrs: uwtable
define internal void @"_ZN109_$LT$alloc..vec..Vec$LT$T$GT$$u20$as$u20$alloc..vec..SpecExtend$LT$$RF$T$C$core..slice..Iter$LT$T$GT$$GT$$GT$11spec_extend17h432d108374cba680E"(%"alloc::vec::Vec<u8>"* align 8 dereferenceable(24) %self, i8* nonnull, i8*) unnamed_addr #1 {
start:
  %iterator = alloca { i8*, i8* }, align 8
  %2 = getelementptr inbounds { i8*, i8* }, { i8*, i8* }* %iterator, i32 0, i32 0
  store i8* %0, i8** %2, align 8
  %3 = getelementptr inbounds { i8*, i8* }, { i8*, i8* }* %iterator, i32 0, i32 1
  store i8* %1, i8** %3, align 8
; call core::slice::Iter<T>::as_slice
  %4 = call { [0 x i8]*, i64 } @"_ZN4core5slice13Iter$LT$T$GT$8as_slice17h29fc01fc4a8b927eE"({ i8*, i8* }* noalias readonly align 8 dereferenceable(16) %iterator)
  %slice.0 = extractvalue { [0 x i8]*, i64 } %4, 0
  %slice.1 = extractvalue { [0 x i8]*, i64 } %4, 1
  br label %bb1

bb1:                                              ; preds = %start
; call core::slice::<impl [T]>::len
  %_7 = call i64 @"_ZN4core5slice29_$LT$impl$u20$$u5b$T$u5d$$GT$3len17h77299b4caeb1f985E"([0 x i8]* noalias nonnull readonly align 1 %slice.0, i64 %slice.1)
  br label %bb2

bb2:                                              ; preds = %bb1
; call alloc::vec::Vec<T>::reserve
  call void @"_ZN5alloc3vec12Vec$LT$T$GT$7reserve17h3a4e918cf3a352dcE"(%"alloc::vec::Vec<u8>"* align 8 dereferenceable(24) %self, i64 %_7)
  br label %bb3

bb3:                                              ; preds = %bb2
; call alloc::vec::Vec<T>::len
  %len = call i64 @"_ZN5alloc3vec12Vec$LT$T$GT$3len17hb54001e0ccabec03E"(%"alloc::vec::Vec<u8>"* noalias readonly align 8 dereferenceable(24) %self)
  br label %bb4

bb4:                                              ; preds = %bb3
; call alloc::vec::Vec<T>::as_mut_ptr
  %_13 = call i8* @"_ZN5alloc3vec12Vec$LT$T$GT$10as_mut_ptr17h8837bd6c82bfb93dE"(%"alloc::vec::Vec<u8>"* align 8 dereferenceable(24) %self)
  br label %bb5

bb5:                                              ; preds = %bb4
; call core::ptr::mut_ptr::<impl *mut T>::add
  %_12 = call i8* @"_ZN4core3ptr7mut_ptr31_$LT$impl$u20$$BP$mut$u20$T$GT$3add17h9d8f05381764e279E"(i8* %_13, i64 %len)
  br label %bb6

bb6:                                              ; preds = %bb5
; call core::slice::<impl [T]>::len
  %_16 = call i64 @"_ZN4core5slice29_$LT$impl$u20$$u5b$T$u5d$$GT$3len17h77299b4caeb1f985E"([0 x i8]* noalias nonnull readonly align 1 %slice.0, i64 %slice.1)
  br label %bb7

bb7:                                              ; preds = %bb6
; call core::slice::from_raw_parts_mut
  %5 = call { [0 x i8]*, i64 } @_ZN4core5slice18from_raw_parts_mut17h5ddf05e6e83b1e47E(i8* %_12, i64 %_16)
  %dst_slice.0 = extractvalue { [0 x i8]*, i64 } %5, 0
  %dst_slice.1 = extractvalue { [0 x i8]*, i64 } %5, 1
  br label %bb8

bb8:                                              ; preds = %bb7
; call core::slice::<impl [T]>::copy_from_slice
  call void @"_ZN4core5slice29_$LT$impl$u20$$u5b$T$u5d$$GT$15copy_from_slice17hd029b53a128194c0E"([0 x i8]* nonnull align 1 %dst_slice.0, i64 %dst_slice.1, [0 x i8]* noalias nonnull readonly align 1 %slice.0, i64 %slice.1)
  br label %bb9

bb9:                                              ; preds = %bb8
; call core::slice::<impl [T]>::len
  %_25 = call i64 @"_ZN4core5slice29_$LT$impl$u20$$u5b$T$u5d$$GT$3len17h77299b4caeb1f985E"([0 x i8]* noalias nonnull readonly align 1 %slice.0, i64 %slice.1)
  br label %bb10

bb10:                                             ; preds = %bb9
  %_23 = add i64 %len, %_25
; call alloc::vec::Vec<T>::set_len
  call void @"_ZN5alloc3vec12Vec$LT$T$GT$7set_len17h69c6c7e4facefad3E"(%"alloc::vec::Vec<u8>"* align 8 dereferenceable(24) %self, i64 %_23)
  br label %bb11

bb11:                                             ; preds = %bb10
  ret void
}

; <core::ptr::non_null::NonNull<T> as core::convert::From<core::ptr::unique::Unique<T>>>::from
; Function Attrs: inlinehint uwtable
define internal nonnull i8* @"_ZN119_$LT$core..ptr..non_null..NonNull$LT$T$GT$$u20$as$u20$core..convert..From$LT$core..ptr..unique..Unique$LT$T$GT$$GT$$GT$4from17h18268c3241915a2cE"(i8* nonnull %unique) unnamed_addr #0 {
start:
; call core::ptr::unique::Unique<T>::as_ptr
  %_2 = call i8* @"_ZN4core3ptr6unique15Unique$LT$T$GT$6as_ptr17h57c50b4d447096b5E"(i8* nonnull %unique)
  br label %bb1

bb1:                                              ; preds = %start
; call core::ptr::non_null::NonNull<T>::new_unchecked
  %0 = call nonnull i8* @"_ZN4core3ptr8non_null16NonNull$LT$T$GT$13new_unchecked17h41fc3ee18276955bE"(i8* %_2)
  br label %bb2

bb2:                                              ; preds = %bb1
  ret i8* %0
}

; <core::ptr::non_null::NonNull<T> as core::convert::From<core::ptr::unique::Unique<T>>>::from
; Function Attrs: inlinehint uwtable
define internal { i64*, i64 } @"_ZN119_$LT$core..ptr..non_null..NonNull$LT$T$GT$$u20$as$u20$core..convert..From$LT$core..ptr..unique..Unique$LT$T$GT$$GT$$GT$4from17h44381f52f152e0ffE"(i64* nonnull %unique.0, i64 %unique.1) unnamed_addr #0 {
start:
; call core::ptr::unique::Unique<T>::as_ptr
  %0 = call { [0 x %"alloc::string::String"]*, i64 } @"_ZN4core3ptr6unique15Unique$LT$T$GT$6as_ptr17hacd665cd53f50860E"(i64* nonnull %unique.0, i64 %unique.1)
  %_2.0 = extractvalue { [0 x %"alloc::string::String"]*, i64 } %0, 0
  %_2.1 = extractvalue { [0 x %"alloc::string::String"]*, i64 } %0, 1
  br label %bb1

bb1:                                              ; preds = %start
; call core::ptr::non_null::NonNull<T>::new_unchecked
  %1 = call { i64*, i64 } @"_ZN4core3ptr8non_null16NonNull$LT$T$GT$13new_unchecked17h5c3315256237ffe5E"([0 x %"alloc::string::String"]* %_2.0, i64 %_2.1)
  %2 = extractvalue { i64*, i64 } %1, 0
  %3 = extractvalue { i64*, i64 } %1, 1
  br label %bb2

bb2:                                              ; preds = %bb1
  %4 = insertvalue { i64*, i64 } undef, i64* %2, 0
  %5 = insertvalue { i64*, i64 } %4, i64 %3, 1
  ret { i64*, i64 } %5
}

; <core::ptr::unique::Unique<T> as core::convert::From<core::ptr::non_null::NonNull<T>>>::from
; Function Attrs: inlinehint uwtable
define internal nonnull i8* @"_ZN119_$LT$core..ptr..unique..Unique$LT$T$GT$$u20$as$u20$core..convert..From$LT$core..ptr..non_null..NonNull$LT$T$GT$$GT$$GT$4from17h67b80256054a125dE"(i8* nonnull %p) unnamed_addr #0 {
start:
; call core::ptr::non_null::NonNull<T>::as_ptr
  %_2 = call i8* @"_ZN4core3ptr8non_null16NonNull$LT$T$GT$6as_ptr17h7aed512d2cafdabeE"(i8* nonnull %p)
  br label %bb1

bb1:                                              ; preds = %start
; call core::ptr::unique::Unique<T>::new_unchecked
  %0 = call nonnull i8* @"_ZN4core3ptr6unique15Unique$LT$T$GT$13new_unchecked17heb36ef62f825bd46E"(i8* %_2)
  br label %bb2

bb2:                                              ; preds = %bb1
  ret i8* %0
}

; std::rt::lang_start
; Function Attrs: uwtable
define hidden i64 @_ZN3std2rt10lang_start17h5d41a93daa26dc70E(void ()* nonnull %main, i64 %argc, i8** %argv) unnamed_addr #1 {
start:
  %_7 = alloca i8*, align 8
  %0 = bitcast i8** %_7 to void ()**
  store void ()* %main, void ()** %0, align 8
  %_4.0 = bitcast i8** %_7 to {}*
; call std::rt::lang_start_internal
  %1 = call i64 @_ZN3std2rt19lang_start_internal17h795af50241e12334E({}* nonnull align 1 %_4.0, [3 x i64]* noalias readonly align 8 dereferenceable(24) bitcast ({ void (i8**)*, i64, i64, i32 (i8**)*, i32 (i8**)*, i32 (i8**)* }* @vtable.0 to [3 x i64]*), i64 %argc, i8** %argv)
  br label %bb1

bb1:                                              ; preds = %start
  ret i64 %1
}

; std::rt::lang_start::{{closure}}
; Function Attrs: uwtable
define internal i32 @"_ZN3std2rt10lang_start28_$u7b$$u7b$closure$u7d$$u7d$17h2d05dfa6026e0b07E"(i8** noalias readonly align 8 dereferenceable(8) %_1) unnamed_addr #1 {
start:
  %0 = bitcast i8** %_1 to void ()**
  %_3 = load void ()*, void ()** %0, align 8, !nonnull !2
  call void %_3()
  br label %bb1

bb1:                                              ; preds = %start
; call <() as std::process::Termination>::report
  %1 = call i32 @"_ZN54_$LT$$LP$$RP$$u20$as$u20$std..process..Termination$GT$6report17ha18d0453ef346652E"()
  br label %bb2

bb2:                                              ; preds = %bb1
  ret i32 %1
}

; std::sys::unix::process::process_common::ExitCode::as_i32
; Function Attrs: inlinehint uwtable
define internal i32 @_ZN3std3sys4unix7process14process_common8ExitCode6as_i3217h565cf15a7e07bb17E(i8* noalias readonly align 1 dereferenceable(1) %self) unnamed_addr #0 {
start:
  %_2 = load i8, i8* %self, align 1
  %0 = zext i8 %_2 to i32
  ret i32 %0
}

; <&T as core::fmt::Debug>::fmt
; Function Attrs: uwtable
define internal zeroext i1 @"_ZN42_$LT$$RF$T$u20$as$u20$core..fmt..Debug$GT$3fmt17heefc32538d603acfE"(i64** noalias readonly align 8 dereferenceable(8) %self, %"core::fmt::Formatter"* align 8 dereferenceable(64) %f) unnamed_addr #1 {
start:
  %_4 = load i64*, i64** %self, align 8, !nonnull !2
; call core::fmt::num::<impl core::fmt::Debug for usize>::fmt
  %0 = call zeroext i1 @"_ZN4core3fmt3num52_$LT$impl$u20$core..fmt..Debug$u20$for$u20$usize$GT$3fmt17h0218e972a18c63a9E"(i64* noalias readonly align 8 dereferenceable(8) %_4, %"core::fmt::Formatter"* align 8 dereferenceable(64) %f)
  br label %bb1

bb1:                                              ; preds = %start
  ret i1 %0
}

; core::intrinsics::write_bytes
; Function Attrs: inlinehint uwtable
define internal void @_ZN4core10intrinsics11write_bytes17h1f1bdfab29f557b2E(i8* %dst, i8 %val, i64 %count) unnamed_addr #0 {
start:
  %0 = mul i64 1, %count
  call void @llvm.memset.p0i8.i64(i8* align 1 %dst, i8 %val, i64 %0, i1 false)
  br label %bb1

bb1:                                              ; preds = %start
  ret void
}

; core::intrinsics::copy_nonoverlapping
; Function Attrs: inlinehint uwtable
define internal void @_ZN4core10intrinsics19copy_nonoverlapping17h52ae0954371888abE(i8* %src, i8* %dst, i64 %count) unnamed_addr #0 {
start:
  %0 = mul i64 1, %count
  call void @llvm.memcpy.p0i8.p0i8.i64(i8* align 1 %dst, i8* align 1 %src, i64 %0, i1 false)
  br label %bb1

bb1:                                              ; preds = %start
  ret void
}

; core::cmp::Ord::max
; Function Attrs: inlinehint uwtable
define internal i64 @_ZN4core3cmp3Ord3max17h673737d610bf808bE(i64 %self, i64 %other) unnamed_addr #0 {
start:
; call core::cmp::max_by
  %0 = call i64 @_ZN4core3cmp6max_by17h80035318de888c9dE(i64 %self, i64 %other)
  br label %bb1

bb1:                                              ; preds = %start
  ret i64 %0
}

; core::cmp::max
; Function Attrs: inlinehint uwtable
define internal i64 @_ZN4core3cmp3max17h2aa5f62e35a38817E(i64 %v1, i64 %v2) unnamed_addr #0 {
start:
; call core::cmp::Ord::max
  %0 = call i64 @_ZN4core3cmp3Ord3max17h673737d610bf808bE(i64 %v1, i64 %v2)
  br label %bb1

bb1:                                              ; preds = %start
  ret i64 %0
}

; core::cmp::impls::<impl core::cmp::Ord for usize>::cmp
; Function Attrs: inlinehint uwtable
define internal i8 @"_ZN4core3cmp5impls50_$LT$impl$u20$core..cmp..Ord$u20$for$u20$usize$GT$3cmp17hd6fa3d6ea0adfbbaE"(i64* noalias readonly align 8 dereferenceable(8) %self, i64* noalias readonly align 8 dereferenceable(8) %other) unnamed_addr #0 {
start:
  %0 = alloca i8, align 1
  %_4 = load i64, i64* %self, align 8
  %_5 = load i64, i64* %other, align 8
  %_3 = icmp ult i64 %_4, %_5
  br i1 %_3, label %bb2, label %bb1

bb1:                                              ; preds = %start
  %_7 = load i64, i64* %self, align 8
  %_8 = load i64, i64* %other, align 8
  %_6 = icmp eq i64 %_7, %_8
  br i1 %_6, label %bb4, label %bb3

bb2:                                              ; preds = %start
  store i8 -1, i8* %0, align 1
  br label %bb6

bb3:                                              ; preds = %bb1
  store i8 1, i8* %0, align 1
  br label %bb5

bb4:                                              ; preds = %bb1
  store i8 0, i8* %0, align 1
  br label %bb5

bb5:                                              ; preds = %bb3, %bb4
  br label %bb6

bb6:                                              ; preds = %bb5, %bb2
  %1 = load i8, i8* %0, align 1, !range !3
  ret i8 %1
}

; core::cmp::max_by
; Function Attrs: inlinehint uwtable
define internal i64 @_ZN4core3cmp6max_by17h80035318de888c9dE(i64, i64) unnamed_addr #0 personality i32 (i32, i32, i64, %"unwind::libunwind::_Unwind_Exception"*, %"unwind::libunwind::_Unwind_Context"*)* @rust_eh_personality {
start:
  %2 = alloca { i8*, i32 }, align 8
  %_13 = alloca i8, align 1
  %_12 = alloca i8, align 1
  %_6 = alloca { i64*, i64* }, align 8
  %_4 = alloca i8, align 1
  %3 = alloca i64, align 8
  %v2 = alloca i64, align 8
  %v1 = alloca i64, align 8
  store i64 %0, i64* %v1, align 8
  store i64 %1, i64* %v2, align 8
  store i8 0, i8* %_12, align 1
  store i8 0, i8* %_13, align 1
  store i8 1, i8* %_12, align 1
  store i8 1, i8* %_13, align 1
  %4 = bitcast { i64*, i64* }* %_6 to i64**
  store i64* %v1, i64** %4, align 8
  %5 = getelementptr inbounds { i64*, i64* }, { i64*, i64* }* %_6, i32 0, i32 1
  store i64* %v2, i64** %5, align 8
  %6 = getelementptr inbounds { i64*, i64* }, { i64*, i64* }* %_6, i32 0, i32 0
  %7 = load i64*, i64** %6, align 8, !nonnull !2
  %8 = getelementptr inbounds { i64*, i64* }, { i64*, i64* }* %_6, i32 0, i32 1
  %9 = load i64*, i64** %8, align 8, !nonnull !2
; invoke core::ops::function::FnOnce::call_once
  %10 = invoke i8 @_ZN4core3ops8function6FnOnce9call_once17h2cb0a71a8b2c52ccE(i64* noalias readonly align 8 dereferenceable(8) %7, i64* noalias readonly align 8 dereferenceable(8) %9)
          to label %bb2 unwind label %cleanup, !range !3

bb1:                                              ; preds = %bb11, %bb3
  %11 = bitcast { i8*, i32 }* %2 to i8**
  %12 = load i8*, i8** %11, align 8
  %13 = getelementptr inbounds { i8*, i32 }, { i8*, i32 }* %2, i32 0, i32 1
  %14 = load i32, i32* %13, align 8
  %15 = insertvalue { i8*, i32 } undef, i8* %12, 0
  %16 = insertvalue { i8*, i32 } %15, i32 %14, 1
  resume { i8*, i32 } %16

bb2:                                              ; preds = %start
  store i8 %10, i8* %_4, align 1
  %17 = load i8, i8* %_4, align 1, !range !3
  %_11 = sext i8 %17 to i64
  switch i64 %_11, label %bb6 [
    i64 -1, label %bb7
    i64 0, label %bb7
    i64 1, label %bb5
  ]

bb3:                                              ; preds = %bb4
  %18 = load i8, i8* %_12, align 1, !range !4
  %19 = trunc i8 %18 to i1
  br i1 %19, label %bb11, label %bb1

bb4:                                              ; preds = %cleanup
  store i8 0, i8* %_13, align 1
  br label %bb3

bb5:                                              ; preds = %bb2
  store i8 0, i8* %_12, align 1
  %20 = load i64, i64* %v1, align 8
  store i64 %20, i64* %3, align 8
  br label %bb8

bb6:                                              ; preds = %bb2
  unreachable

bb7:                                              ; preds = %bb2, %bb2
  store i8 0, i8* %_13, align 1
  %21 = load i64, i64* %v2, align 8
  store i64 %21, i64* %3, align 8
  br label %bb8

bb8:                                              ; preds = %bb7, %bb5
  %22 = load i8, i8* %_13, align 1, !range !4
  %23 = trunc i8 %22 to i1
  br i1 %23, label %bb12, label %bb9

bb9:                                              ; preds = %bb12, %bb8
  %24 = load i8, i8* %_12, align 1, !range !4
  %25 = trunc i8 %24 to i1
  br i1 %25, label %bb13, label %bb10

bb10:                                             ; preds = %bb13, %bb9
  %26 = load i64, i64* %3, align 8
  ret i64 %26

bb11:                                             ; preds = %bb3
  store i8 0, i8* %_12, align 1
  br label %bb1

bb12:                                             ; preds = %bb8
  store i8 0, i8* %_13, align 1
  br label %bb9

bb13:                                             ; preds = %bb9
  store i8 0, i8* %_12, align 1
  br label %bb10

cleanup:                                          ; preds = %start
  %27 = landingpad { i8*, i32 }
          cleanup
  %28 = extractvalue { i8*, i32 } %27, 0
  %29 = extractvalue { i8*, i32 } %27, 1
  %30 = getelementptr inbounds { i8*, i32 }, { i8*, i32 }* %2, i32 0, i32 0
  store i8* %28, i8** %30, align 8
  %31 = getelementptr inbounds { i8*, i32 }, { i8*, i32 }* %2, i32 0, i32 1
  store i32 %29, i32* %31, align 8
  br label %bb4
}

; core::fmt::ArgumentV1::new
; Function Attrs: uwtable
define internal { i8*, i8* } @_ZN4core3fmt10ArgumentV13new17he537cd9ec6f120a3E(%"core::fmt::Arguments"* noalias readonly align 8 dereferenceable(48) %x, i1 (%"core::fmt::Arguments"*, %"core::fmt::Formatter"*)* nonnull %f) unnamed_addr #1 {
start:
  %0 = alloca %"core::fmt::::Opaque"*, align 8
  %1 = alloca i1 (%"core::fmt::::Opaque"*, %"core::fmt::Formatter"*)*, align 8
  %2 = alloca { i8*, i8* }, align 8
  %3 = bitcast i1 (%"core::fmt::::Opaque"*, %"core::fmt::Formatter"*)** %1 to i1 (%"core::fmt::Arguments"*, %"core::fmt::Formatter"*)**
  store i1 (%"core::fmt::Arguments"*, %"core::fmt::Formatter"*)* %f, i1 (%"core::fmt::Arguments"*, %"core::fmt::Formatter"*)** %3, align 8
  %_3 = load i1 (%"core::fmt::::Opaque"*, %"core::fmt::Formatter"*)*, i1 (%"core::fmt::::Opaque"*, %"core::fmt::Formatter"*)** %1, align 8, !nonnull !2
  br label %bb1

bb1:                                              ; preds = %start
  %4 = bitcast %"core::fmt::::Opaque"** %0 to %"core::fmt::Arguments"**
  store %"core::fmt::Arguments"* %x, %"core::fmt::Arguments"** %4, align 8
  %_5 = load %"core::fmt::::Opaque"*, %"core::fmt::::Opaque"** %0, align 8, !nonnull !2
  br label %bb2

bb2:                                              ; preds = %bb1
  %5 = bitcast { i8*, i8* }* %2 to %"core::fmt::::Opaque"**
  store %"core::fmt::::Opaque"* %_5, %"core::fmt::::Opaque"** %5, align 8
  %6 = getelementptr inbounds { i8*, i8* }, { i8*, i8* }* %2, i32 0, i32 1
  %7 = bitcast i8** %6 to i1 (%"core::fmt::::Opaque"*, %"core::fmt::Formatter"*)**
  store i1 (%"core::fmt::::Opaque"*, %"core::fmt::Formatter"*)* %_3, i1 (%"core::fmt::::Opaque"*, %"core::fmt::Formatter"*)** %7, align 8
  %8 = getelementptr inbounds { i8*, i8* }, { i8*, i8* }* %2, i32 0, i32 0
  %9 = load i8*, i8** %8, align 8, !nonnull !2
  %10 = getelementptr inbounds { i8*, i8* }, { i8*, i8* }* %2, i32 0, i32 1
  %11 = load i8*, i8** %10, align 8, !nonnull !2
  %12 = insertvalue { i8*, i8* } undef, i8* %9, 0
  %13 = insertvalue { i8*, i8* } %12, i8* %11, 1
  ret { i8*, i8* } %13
}

; core::fmt::ArgumentV1::new
; Function Attrs: uwtable
define internal { i8*, i8* } @_ZN4core3fmt10ArgumentV13new17hf53d5982daf7b2c4E(%"alloc::string::String"* noalias readonly align 8 dereferenceable(24) %x, i1 (%"alloc::string::String"*, %"core::fmt::Formatter"*)* nonnull %f) unnamed_addr #1 {
start:
  %0 = alloca %"core::fmt::::Opaque"*, align 8
  %1 = alloca i1 (%"core::fmt::::Opaque"*, %"core::fmt::Formatter"*)*, align 8
  %2 = alloca { i8*, i8* }, align 8
  %3 = bitcast i1 (%"core::fmt::::Opaque"*, %"core::fmt::Formatter"*)** %1 to i1 (%"alloc::string::String"*, %"core::fmt::Formatter"*)**
  store i1 (%"alloc::string::String"*, %"core::fmt::Formatter"*)* %f, i1 (%"alloc::string::String"*, %"core::fmt::Formatter"*)** %3, align 8
  %_3 = load i1 (%"core::fmt::::Opaque"*, %"core::fmt::Formatter"*)*, i1 (%"core::fmt::::Opaque"*, %"core::fmt::Formatter"*)** %1, align 8, !nonnull !2
  br label %bb1

bb1:                                              ; preds = %start
  %4 = bitcast %"core::fmt::::Opaque"** %0 to %"alloc::string::String"**
  store %"alloc::string::String"* %x, %"alloc::string::String"** %4, align 8
  %_5 = load %"core::fmt::::Opaque"*, %"core::fmt::::Opaque"** %0, align 8, !nonnull !2
  br label %bb2

bb2:                                              ; preds = %bb1
  %5 = bitcast { i8*, i8* }* %2 to %"core::fmt::::Opaque"**
  store %"core::fmt::::Opaque"* %_5, %"core::fmt::::Opaque"** %5, align 8
  %6 = getelementptr inbounds { i8*, i8* }, { i8*, i8* }* %2, i32 0, i32 1
  %7 = bitcast i8** %6 to i1 (%"core::fmt::::Opaque"*, %"core::fmt::Formatter"*)**
  store i1 (%"core::fmt::::Opaque"*, %"core::fmt::Formatter"*)* %_3, i1 (%"core::fmt::::Opaque"*, %"core::fmt::Formatter"*)** %7, align 8
  %8 = getelementptr inbounds { i8*, i8* }, { i8*, i8* }* %2, i32 0, i32 0
  %9 = load i8*, i8** %8, align 8, !nonnull !2
  %10 = getelementptr inbounds { i8*, i8* }, { i8*, i8* }* %2, i32 0, i32 1
  %11 = load i8*, i8** %10, align 8, !nonnull !2
  %12 = insertvalue { i8*, i8* } undef, i8* %9, 0
  %13 = insertvalue { i8*, i8* } %12, i8* %11, 1
  ret { i8*, i8* } %13
}

; core::fmt::ArgumentV1::new
; Function Attrs: uwtable
define internal { i8*, i8* } @_ZN4core3fmt10ArgumentV13new17hf7abf2740769eae6E(i64** noalias readonly align 8 dereferenceable(8) %x, i1 (i64**, %"core::fmt::Formatter"*)* nonnull %f) unnamed_addr #1 {
start:
  %0 = alloca %"core::fmt::::Opaque"*, align 8
  %1 = alloca i1 (%"core::fmt::::Opaque"*, %"core::fmt::Formatter"*)*, align 8
  %2 = alloca { i8*, i8* }, align 8
  %3 = bitcast i1 (%"core::fmt::::Opaque"*, %"core::fmt::Formatter"*)** %1 to i1 (i64**, %"core::fmt::Formatter"*)**
  store i1 (i64**, %"core::fmt::Formatter"*)* %f, i1 (i64**, %"core::fmt::Formatter"*)** %3, align 8
  %_3 = load i1 (%"core::fmt::::Opaque"*, %"core::fmt::Formatter"*)*, i1 (%"core::fmt::::Opaque"*, %"core::fmt::Formatter"*)** %1, align 8, !nonnull !2
  br label %bb1

bb1:                                              ; preds = %start
  %4 = bitcast %"core::fmt::::Opaque"** %0 to i64***
  store i64** %x, i64*** %4, align 8
  %_5 = load %"core::fmt::::Opaque"*, %"core::fmt::::Opaque"** %0, align 8, !nonnull !2
  br label %bb2

bb2:                                              ; preds = %bb1
  %5 = bitcast { i8*, i8* }* %2 to %"core::fmt::::Opaque"**
  store %"core::fmt::::Opaque"* %_5, %"core::fmt::::Opaque"** %5, align 8
  %6 = getelementptr inbounds { i8*, i8* }, { i8*, i8* }* %2, i32 0, i32 1
  %7 = bitcast i8** %6 to i1 (%"core::fmt::::Opaque"*, %"core::fmt::Formatter"*)**
  store i1 (%"core::fmt::::Opaque"*, %"core::fmt::Formatter"*)* %_3, i1 (%"core::fmt::::Opaque"*, %"core::fmt::Formatter"*)** %7, align 8
  %8 = getelementptr inbounds { i8*, i8* }, { i8*, i8* }* %2, i32 0, i32 0
  %9 = load i8*, i8** %8, align 8, !nonnull !2
  %10 = getelementptr inbounds { i8*, i8* }, { i8*, i8* }* %2, i32 0, i32 1
  %11 = load i8*, i8** %10, align 8, !nonnull !2
  %12 = insertvalue { i8*, i8* } undef, i8* %9, 0
  %13 = insertvalue { i8*, i8* } %12, i8* %11, 1
  ret { i8*, i8* } %13
}

; core::fmt::ArgumentV1::new
; Function Attrs: uwtable
define internal { i8*, i8* } @_ZN4core3fmt10ArgumentV13new17hf8bbcfd9aecec3b6E(%"test_extention_method_on_vector::Wrapper"* noalias readonly align 8 dereferenceable(24) %x, i1 (%"test_extention_method_on_vector::Wrapper"*, %"core::fmt::Formatter"*)* nonnull %f) unnamed_addr #1 {
start:
  %0 = alloca %"core::fmt::::Opaque"*, align 8
  %1 = alloca i1 (%"core::fmt::::Opaque"*, %"core::fmt::Formatter"*)*, align 8
  %2 = alloca { i8*, i8* }, align 8
  %3 = bitcast i1 (%"core::fmt::::Opaque"*, %"core::fmt::Formatter"*)** %1 to i1 (%"test_extention_method_on_vector::Wrapper"*, %"core::fmt::Formatter"*)**
  store i1 (%"test_extention_method_on_vector::Wrapper"*, %"core::fmt::Formatter"*)* %f, i1 (%"test_extention_method_on_vector::Wrapper"*, %"core::fmt::Formatter"*)** %3, align 8
  %_3 = load i1 (%"core::fmt::::Opaque"*, %"core::fmt::Formatter"*)*, i1 (%"core::fmt::::Opaque"*, %"core::fmt::Formatter"*)** %1, align 8, !nonnull !2
  br label %bb1

bb1:                                              ; preds = %start
  %4 = bitcast %"core::fmt::::Opaque"** %0 to %"test_extention_method_on_vector::Wrapper"**
  store %"test_extention_method_on_vector::Wrapper"* %x, %"test_extention_method_on_vector::Wrapper"** %4, align 8
  %_5 = load %"core::fmt::::Opaque"*, %"core::fmt::::Opaque"** %0, align 8, !nonnull !2
  br label %bb2

bb2:                                              ; preds = %bb1
  %5 = bitcast { i8*, i8* }* %2 to %"core::fmt::::Opaque"**
  store %"core::fmt::::Opaque"* %_5, %"core::fmt::::Opaque"** %5, align 8
  %6 = getelementptr inbounds { i8*, i8* }, { i8*, i8* }* %2, i32 0, i32 1
  %7 = bitcast i8** %6 to i1 (%"core::fmt::::Opaque"*, %"core::fmt::Formatter"*)**
  store i1 (%"core::fmt::::Opaque"*, %"core::fmt::Formatter"*)* %_3, i1 (%"core::fmt::::Opaque"*, %"core::fmt::Formatter"*)** %7, align 8
  %8 = getelementptr inbounds { i8*, i8* }, { i8*, i8* }* %2, i32 0, i32 0
  %9 = load i8*, i8** %8, align 8, !nonnull !2
  %10 = getelementptr inbounds { i8*, i8* }, { i8*, i8* }* %2, i32 0, i32 1
  %11 = load i8*, i8** %10, align 8, !nonnull !2
  %12 = insertvalue { i8*, i8* } undef, i8* %9, 0
  %13 = insertvalue { i8*, i8* } %12, i8* %11, 1
  ret { i8*, i8* } %13
}

; core::fmt::num::<impl core::fmt::Debug for usize>::fmt
; Function Attrs: inlinehint uwtable
define internal zeroext i1 @"_ZN4core3fmt3num52_$LT$impl$u20$core..fmt..Debug$u20$for$u20$usize$GT$3fmt17h0218e972a18c63a9E"(i64* noalias readonly align 8 dereferenceable(8) %self, %"core::fmt::Formatter"* align 8 dereferenceable(64) %f) unnamed_addr #0 {
start:
  %0 = alloca i8, align 1
; call core::fmt::Formatter::debug_lower_hex
  %_3 = call zeroext i1 @_ZN4core3fmt9Formatter15debug_lower_hex17h98d48160f16b6157E(%"core::fmt::Formatter"* noalias readonly align 8 dereferenceable(64) %f)
  br label %bb1

bb1:                                              ; preds = %start
  br i1 %_3, label %bb3, label %bb2

bb2:                                              ; preds = %bb1
; call core::fmt::Formatter::debug_upper_hex
  %_7 = call zeroext i1 @_ZN4core3fmt9Formatter15debug_upper_hex17heb4ada679669b6f0E(%"core::fmt::Formatter"* noalias readonly align 8 dereferenceable(64) %f)
  br label %bb5

bb3:                                              ; preds = %bb1
; call core::fmt::num::<impl core::fmt::LowerHex for usize>::fmt
  %1 = call zeroext i1 @"_ZN4core3fmt3num55_$LT$impl$u20$core..fmt..LowerHex$u20$for$u20$usize$GT$3fmt17h91c34ef41eca3438E"(i64* noalias readonly align 8 dereferenceable(8) %self, %"core::fmt::Formatter"* align 8 dereferenceable(64) %f)
  %2 = zext i1 %1 to i8
  store i8 %2, i8* %0, align 1
  br label %bb4

bb4:                                              ; preds = %bb3
  br label %bb11

bb5:                                              ; preds = %bb2
  br i1 %_7, label %bb7, label %bb6

bb6:                                              ; preds = %bb5
; call core::fmt::num::imp::<impl core::fmt::Display for usize>::fmt
  %3 = call zeroext i1 @"_ZN4core3fmt3num3imp54_$LT$impl$u20$core..fmt..Display$u20$for$u20$usize$GT$3fmt17h8a5e0c6d374665cbE"(i64* noalias readonly align 8 dereferenceable(8) %self, %"core::fmt::Formatter"* align 8 dereferenceable(64) %f)
  %4 = zext i1 %3 to i8
  store i8 %4, i8* %0, align 1
  br label %bb9

bb7:                                              ; preds = %bb5
; call core::fmt::num::<impl core::fmt::UpperHex for usize>::fmt
  %5 = call zeroext i1 @"_ZN4core3fmt3num55_$LT$impl$u20$core..fmt..UpperHex$u20$for$u20$usize$GT$3fmt17h06bc4f62e8ca26b0E"(i64* noalias readonly align 8 dereferenceable(8) %self, %"core::fmt::Formatter"* align 8 dereferenceable(64) %f)
  %6 = zext i1 %5 to i8
  store i8 %6, i8* %0, align 1
  br label %bb8

bb8:                                              ; preds = %bb7
  br label %bb10

bb9:                                              ; preds = %bb6
  br label %bb10

bb10:                                             ; preds = %bb9, %bb8
  br label %bb11

bb11:                                             ; preds = %bb10, %bb4
  %7 = load i8, i8* %0, align 1, !range !4
  %8 = trunc i8 %7 to i1
  ret i1 %8
}

; core::fmt::Arguments::new_v1
; Function Attrs: inlinehint uwtable
define internal void @_ZN4core3fmt9Arguments6new_v117hf53eb7139e4dcbecE(%"core::fmt::Arguments"* noalias nocapture sret dereferenceable(48), [0 x { [0 x i8]*, i64 }]* noalias nonnull readonly align 8 %pieces.0, i64 %pieces.1, [0 x { i8*, i8* }]* noalias nonnull readonly align 8 %args.0, i64 %args.1) unnamed_addr #0 {
start:
  %_4 = alloca { i64*, i64 }, align 8
  %1 = bitcast { i64*, i64 }* %_4 to {}**
  store {}* null, {}** %1, align 8
  %2 = bitcast %"core::fmt::Arguments"* %0 to { [0 x { [0 x i8]*, i64 }]*, i64 }*
  %3 = getelementptr inbounds { [0 x { [0 x i8]*, i64 }]*, i64 }, { [0 x { [0 x i8]*, i64 }]*, i64 }* %2, i32 0, i32 0
  store [0 x { [0 x i8]*, i64 }]* %pieces.0, [0 x { [0 x i8]*, i64 }]** %3, align 8
  %4 = getelementptr inbounds { [0 x { [0 x i8]*, i64 }]*, i64 }, { [0 x { [0 x i8]*, i64 }]*, i64 }* %2, i32 0, i32 1
  store i64 %pieces.1, i64* %4, align 8
  %5 = getelementptr inbounds %"core::fmt::Arguments", %"core::fmt::Arguments"* %0, i32 0, i32 3
  %6 = getelementptr inbounds { i64*, i64 }, { i64*, i64 }* %_4, i32 0, i32 0
  %7 = load i64*, i64** %6, align 8
  %8 = getelementptr inbounds { i64*, i64 }, { i64*, i64 }* %_4, i32 0, i32 1
  %9 = load i64, i64* %8, align 8
  %10 = getelementptr inbounds { i64*, i64 }, { i64*, i64 }* %5, i32 0, i32 0
  store i64* %7, i64** %10, align 8
  %11 = getelementptr inbounds { i64*, i64 }, { i64*, i64 }* %5, i32 0, i32 1
  store i64 %9, i64* %11, align 8
  %12 = getelementptr inbounds %"core::fmt::Arguments", %"core::fmt::Arguments"* %0, i32 0, i32 5
  %13 = getelementptr inbounds { [0 x { i8*, i8* }]*, i64 }, { [0 x { i8*, i8* }]*, i64 }* %12, i32 0, i32 0
  store [0 x { i8*, i8* }]* %args.0, [0 x { i8*, i8* }]** %13, align 8
  %14 = getelementptr inbounds { [0 x { i8*, i8* }]*, i64 }, { [0 x { i8*, i8* }]*, i64 }* %12, i32 0, i32 1
  store i64 %args.1, i64* %14, align 8
  ret void
}

; core::num::NonZeroUsize::new_unchecked
; Function Attrs: inlinehint uwtable
define internal i64 @_ZN4core3num12NonZeroUsize13new_unchecked17h4f2cbadab45af4feE(i64 %n) unnamed_addr #0 {
start:
  %0 = alloca i64, align 8
  store i64 %n, i64* %0, align 8
  %1 = load i64, i64* %0, align 8, !range !5
  ret i64 %1
}

; core::num::NonZeroUsize::get
; Function Attrs: inlinehint uwtable
define internal i64 @_ZN4core3num12NonZeroUsize3get17hf66e36b0c1dbf4f8E(i64 %self) unnamed_addr #0 {
start:
  ret i64 %self
}

; core::num::<impl usize>::count_ones
; Function Attrs: inlinehint uwtable
define internal i32 @"_ZN4core3num23_$LT$impl$u20$usize$GT$10count_ones17h64d7c39296ec7b71E"(i64 %self) unnamed_addr #0 {
start:
  %0 = alloca i64, align 8
  %1 = call i64 @llvm.ctpop.i64(i64 %self)
  store i64 %1, i64* %0, align 8
  %_2 = load i64, i64* %0, align 8
  br label %bb1

bb1:                                              ; preds = %start
  %2 = trunc i64 %_2 to i32
  ret i32 %2
}

; core::num::<impl usize>::checked_add
; Function Attrs: inlinehint uwtable
define internal { i64, i64 } @"_ZN4core3num23_$LT$impl$u20$usize$GT$11checked_add17hb9135c014c057880E"(i64 %self, i64 %rhs) unnamed_addr #0 {
start:
  %0 = alloca { i64, i64 }, align 8
; call core::num::<impl usize>::overflowing_add
  %1 = call { i64, i8 } @"_ZN4core3num23_$LT$impl$u20$usize$GT$15overflowing_add17h6a0660b74289e9c7E"(i64 %self, i64 %rhs)
  %_5.0 = extractvalue { i64, i8 } %1, 0
  %2 = extractvalue { i64, i8 } %1, 1
  %_5.1 = trunc i8 %2 to i1
  br label %bb1

bb1:                                              ; preds = %start
  br i1 %_5.1, label %bb3, label %bb2

bb2:                                              ; preds = %bb1
  %3 = bitcast { i64, i64 }* %0 to %"core::option::Option<usize>::Some"*
  %4 = getelementptr inbounds %"core::option::Option<usize>::Some", %"core::option::Option<usize>::Some"* %3, i32 0, i32 1
  store i64 %_5.0, i64* %4, align 8
  %5 = bitcast { i64, i64 }* %0 to i64*
  store i64 1, i64* %5, align 8
  br label %bb4

bb3:                                              ; preds = %bb1
  %6 = bitcast { i64, i64 }* %0 to i64*
  store i64 0, i64* %6, align 8
  br label %bb4

bb4:                                              ; preds = %bb2, %bb3
  %7 = getelementptr inbounds { i64, i64 }, { i64, i64 }* %0, i32 0, i32 0
  %8 = load i64, i64* %7, align 8, !range !6
  %9 = getelementptr inbounds { i64, i64 }, { i64, i64 }* %0, i32 0, i32 1
  %10 = load i64, i64* %9, align 8
  %11 = insertvalue { i64, i64 } undef, i64 %8, 0
  %12 = insertvalue { i64, i64 } %11, i64 %10, 1
  ret { i64, i64 } %12
}

; core::num::<impl usize>::checked_mul
; Function Attrs: inlinehint uwtable
define internal { i64, i64 } @"_ZN4core3num23_$LT$impl$u20$usize$GT$11checked_mul17ha7b9dc81a7be28ddE"(i64 %self, i64 %rhs) unnamed_addr #0 {
start:
  %0 = alloca { i64, i64 }, align 8
; call core::num::<impl usize>::overflowing_mul
  %1 = call { i64, i8 } @"_ZN4core3num23_$LT$impl$u20$usize$GT$15overflowing_mul17h3a583666c31669bbE"(i64 %self, i64 %rhs)
  %_5.0 = extractvalue { i64, i8 } %1, 0
  %2 = extractvalue { i64, i8 } %1, 1
  %_5.1 = trunc i8 %2 to i1
  br label %bb1

bb1:                                              ; preds = %start
  br i1 %_5.1, label %bb3, label %bb2

bb2:                                              ; preds = %bb1
  %3 = bitcast { i64, i64 }* %0 to %"core::option::Option<usize>::Some"*
  %4 = getelementptr inbounds %"core::option::Option<usize>::Some", %"core::option::Option<usize>::Some"* %3, i32 0, i32 1
  store i64 %_5.0, i64* %4, align 8
  %5 = bitcast { i64, i64 }* %0 to i64*
  store i64 1, i64* %5, align 8
  br label %bb4

bb3:                                              ; preds = %bb1
  %6 = bitcast { i64, i64 }* %0 to i64*
  store i64 0, i64* %6, align 8
  br label %bb4

bb4:                                              ; preds = %bb2, %bb3
  %7 = getelementptr inbounds { i64, i64 }, { i64, i64 }* %0, i32 0, i32 0
  %8 = load i64, i64* %7, align 8, !range !6
  %9 = getelementptr inbounds { i64, i64 }, { i64, i64 }* %0, i32 0, i32 1
  %10 = load i64, i64* %9, align 8
  %11 = insertvalue { i64, i64 } undef, i64 %8, 0
  %12 = insertvalue { i64, i64 } %11, i64 %10, 1
  ret { i64, i64 } %12
}

; core::num::<impl usize>::wrapping_add
; Function Attrs: inlinehint uwtable
define internal i64 @"_ZN4core3num23_$LT$impl$u20$usize$GT$12wrapping_add17h2f29ec33a237bce1E"(i64 %self, i64 %rhs) unnamed_addr #0 {
start:
  %0 = alloca i64, align 8
  %1 = add i64 %self, %rhs
  store i64 %1, i64* %0, align 8
  %2 = load i64, i64* %0, align 8
  br label %bb1

bb1:                                              ; preds = %start
  ret i64 %2
}

; core::num::<impl usize>::wrapping_sub
; Function Attrs: inlinehint uwtable
define internal i64 @"_ZN4core3num23_$LT$impl$u20$usize$GT$12wrapping_sub17h283a835cc3a04a13E"(i64 %self, i64 %rhs) unnamed_addr #0 {
start:
  %0 = alloca i64, align 8
  %1 = sub i64 %self, %rhs
  store i64 %1, i64* %0, align 8
  %2 = load i64, i64* %0, align 8
  br label %bb1

bb1:                                              ; preds = %start
  ret i64 %2
}

; core::num::<impl usize>::is_power_of_two
; Function Attrs: inlinehint uwtable
define internal zeroext i1 @"_ZN4core3num23_$LT$impl$u20$usize$GT$15is_power_of_two17hfb70125818f7960fE"(i64 %self) unnamed_addr #0 {
start:
; call core::num::<impl usize>::count_ones
  %_2 = call i32 @"_ZN4core3num23_$LT$impl$u20$usize$GT$10count_ones17h64d7c39296ec7b71E"(i64 %self)
  br label %bb1

bb1:                                              ; preds = %start
  %0 = icmp eq i32 %_2, 1
  ret i1 %0
}

; core::num::<impl usize>::overflowing_add
; Function Attrs: inlinehint uwtable
define internal { i64, i8 } @"_ZN4core3num23_$LT$impl$u20$usize$GT$15overflowing_add17h6a0660b74289e9c7E"(i64 %self, i64 %rhs) unnamed_addr #0 {
start:
  %0 = alloca { i64, i8 }, align 8
  %1 = alloca { i64, i8 }, align 8
  %2 = call { i64, i1 } @llvm.uadd.with.overflow.i64(i64 %self, i64 %rhs)
  %3 = extractvalue { i64, i1 } %2, 0
  %4 = extractvalue { i64, i1 } %2, 1
  %5 = zext i1 %4 to i8
  %6 = bitcast { i64, i8 }* %0 to i64*
  store i64 %3, i64* %6, align 8
  %7 = getelementptr inbounds { i64, i8 }, { i64, i8 }* %0, i32 0, i32 1
  store i8 %5, i8* %7, align 8
  %8 = getelementptr inbounds { i64, i8 }, { i64, i8 }* %0, i32 0, i32 0
  %_5.0 = load i64, i64* %8, align 8
  %9 = getelementptr inbounds { i64, i8 }, { i64, i8 }* %0, i32 0, i32 1
  %10 = load i8, i8* %9, align 8, !range !4
  %_5.1 = trunc i8 %10 to i1
  br label %bb1

bb1:                                              ; preds = %start
  %11 = bitcast { i64, i8 }* %1 to i64*
  store i64 %_5.0, i64* %11, align 8
  %12 = getelementptr inbounds { i64, i8 }, { i64, i8 }* %1, i32 0, i32 1
  %13 = zext i1 %_5.1 to i8
  store i8 %13, i8* %12, align 8
  %14 = getelementptr inbounds { i64, i8 }, { i64, i8 }* %1, i32 0, i32 0
  %15 = load i64, i64* %14, align 8
  %16 = getelementptr inbounds { i64, i8 }, { i64, i8 }* %1, i32 0, i32 1
  %17 = load i8, i8* %16, align 8, !range !4
  %18 = trunc i8 %17 to i1
  %19 = zext i1 %18 to i8
  %20 = insertvalue { i64, i8 } undef, i64 %15, 0
  %21 = insertvalue { i64, i8 } %20, i8 %19, 1
  ret { i64, i8 } %21
}

; core::num::<impl usize>::overflowing_mul
; Function Attrs: inlinehint uwtable
define internal { i64, i8 } @"_ZN4core3num23_$LT$impl$u20$usize$GT$15overflowing_mul17h3a583666c31669bbE"(i64 %self, i64 %rhs) unnamed_addr #0 {
start:
  %0 = alloca { i64, i8 }, align 8
  %1 = alloca { i64, i8 }, align 8
  %2 = call { i64, i1 } @llvm.umul.with.overflow.i64(i64 %self, i64 %rhs)
  %3 = extractvalue { i64, i1 } %2, 0
  %4 = extractvalue { i64, i1 } %2, 1
  %5 = zext i1 %4 to i8
  %6 = bitcast { i64, i8 }* %0 to i64*
  store i64 %3, i64* %6, align 8
  %7 = getelementptr inbounds { i64, i8 }, { i64, i8 }* %0, i32 0, i32 1
  store i8 %5, i8* %7, align 8
  %8 = getelementptr inbounds { i64, i8 }, { i64, i8 }* %0, i32 0, i32 0
  %_5.0 = load i64, i64* %8, align 8
  %9 = getelementptr inbounds { i64, i8 }, { i64, i8 }* %0, i32 0, i32 1
  %10 = load i8, i8* %9, align 8, !range !4
  %_5.1 = trunc i8 %10 to i1
  br label %bb1

bb1:                                              ; preds = %start
  %11 = bitcast { i64, i8 }* %1 to i64*
  store i64 %_5.0, i64* %11, align 8
  %12 = getelementptr inbounds { i64, i8 }, { i64, i8 }* %1, i32 0, i32 1
  %13 = zext i1 %_5.1 to i8
  store i8 %13, i8* %12, align 8
  %14 = getelementptr inbounds { i64, i8 }, { i64, i8 }* %1, i32 0, i32 0
  %15 = load i64, i64* %14, align 8
  %16 = getelementptr inbounds { i64, i8 }, { i64, i8 }* %1, i32 0, i32 1
  %17 = load i8, i8* %16, align 8, !range !4
  %18 = trunc i8 %17 to i1
  %19 = zext i1 %18 to i8
  %20 = insertvalue { i64, i8 } undef, i64 %15, 0
  %21 = insertvalue { i64, i8 } %20, i8 %19, 1
  ret { i64, i8 } %21
}

; core::ops::function::FnMut::call_mut
; Function Attrs: uwtable
define internal { i64, i64 } @_ZN4core3ops8function5FnMut8call_mut17hbdfe01a1a63d3da5E({}* nonnull align 1 %_1, i64, i64) unnamed_addr #1 {
start:
  %_2 = alloca { i64, i64 }, align 8
  %2 = bitcast { i64, i64 }* %_2 to i64*
  store i64 %0, i64* %2, align 8
  %3 = getelementptr inbounds { i64, i64 }, { i64, i64 }* %_2, i32 0, i32 1
  store i64 %1, i64* %3, align 8
  %4 = bitcast { i64, i64 }* %_2 to i64*
  %5 = load i64, i64* %4, align 8
  %6 = getelementptr inbounds { i64, i64 }, { i64, i64 }* %_2, i32 0, i32 1
  %7 = load i64, i64* %6, align 8
; call core::num::<impl usize>::checked_add
  %8 = call { i64, i64 } @"_ZN4core3num23_$LT$impl$u20$usize$GT$11checked_add17hb9135c014c057880E"(i64 %5, i64 %7)
  %9 = extractvalue { i64, i64 } %8, 0
  %10 = extractvalue { i64, i64 } %8, 1
  br label %bb1

bb1:                                              ; preds = %start
  %11 = insertvalue { i64, i64 } undef, i64 %9, 0
  %12 = insertvalue { i64, i64 } %11, i64 %10, 1
  ret { i64, i64 } %12
}

; core::ops::function::FnOnce::call_once{{vtable.shim}}
; Function Attrs: uwtable
define internal i32 @"_ZN4core3ops8function6FnOnce40call_once$u7b$$u7b$vtable.shim$u7d$$u7d$17hfc1b87f6245fe9a0E"(i8** %_1) unnamed_addr #1 {
start:
  %_2 = alloca {}, align 1
  %0 = load i8*, i8** %_1, align 8, !nonnull !2
; call core::ops::function::FnOnce::call_once
  %1 = call i32 @_ZN4core3ops8function6FnOnce9call_once17ha2625451769e342bE(i8* nonnull %0)
  br label %bb1

bb1:                                              ; preds = %start
  ret i32 %1
}

; core::ops::function::FnOnce::call_once
; Function Attrs: uwtable
define internal i8 @_ZN4core3ops8function6FnOnce9call_once17h2cb0a71a8b2c52ccE(i64* noalias readonly align 8 dereferenceable(8), i64* noalias readonly align 8 dereferenceable(8)) unnamed_addr #1 {
start:
  %_2 = alloca { i64*, i64* }, align 8
  %2 = bitcast { i64*, i64* }* %_2 to i64**
  store i64* %0, i64** %2, align 8
  %3 = getelementptr inbounds { i64*, i64* }, { i64*, i64* }* %_2, i32 0, i32 1
  store i64* %1, i64** %3, align 8
  %4 = bitcast { i64*, i64* }* %_2 to i64**
  %5 = load i64*, i64** %4, align 8, !nonnull !2
  %6 = getelementptr inbounds { i64*, i64* }, { i64*, i64* }* %_2, i32 0, i32 1
  %7 = load i64*, i64** %6, align 8, !nonnull !2
; call core::cmp::impls::<impl core::cmp::Ord for usize>::cmp
  %8 = call i8 @"_ZN4core3cmp5impls50_$LT$impl$u20$core..cmp..Ord$u20$for$u20$usize$GT$3cmp17hd6fa3d6ea0adfbbaE"(i64* noalias readonly align 8 dereferenceable(8) %5, i64* noalias readonly align 8 dereferenceable(8) %7), !range !3
  br label %bb1

bb1:                                              ; preds = %start
  ret i8 %8
}

; core::ops::function::FnOnce::call_once
; Function Attrs: uwtable
define internal i32 @_ZN4core3ops8function6FnOnce9call_once17ha2625451769e342bE(i8* nonnull) unnamed_addr #1 personality i32 (i32, i32, i64, %"unwind::libunwind::_Unwind_Exception"*, %"unwind::libunwind::_Unwind_Context"*)* @rust_eh_personality {
start:
  %1 = alloca { i8*, i32 }, align 8
  %_2 = alloca {}, align 1
  %_1 = alloca i8*, align 8
  store i8* %0, i8** %_1, align 8
; invoke std::rt::lang_start::{{closure}}
  %2 = invoke i32 @"_ZN3std2rt10lang_start28_$u7b$$u7b$closure$u7d$$u7d$17h2d05dfa6026e0b07E"(i8** noalias readonly align 8 dereferenceable(8) %_1)
          to label %bb1 unwind label %cleanup

bb1:                                              ; preds = %start
  br label %bb2

bb2:                                              ; preds = %bb1
  ret i32 %2

bb3:                                              ; preds = %cleanup
  br label %bb4

bb4:                                              ; preds = %bb3
  %3 = bitcast { i8*, i32 }* %1 to i8**
  %4 = load i8*, i8** %3, align 8
  %5 = getelementptr inbounds { i8*, i32 }, { i8*, i32 }* %1, i32 0, i32 1
  %6 = load i32, i32* %5, align 8
  %7 = insertvalue { i8*, i32 } undef, i8* %4, 0
  %8 = insertvalue { i8*, i32 } %7, i32 %6, 1
  resume { i8*, i32 } %8

cleanup:                                          ; preds = %start
  %9 = landingpad { i8*, i32 }
          cleanup
  %10 = extractvalue { i8*, i32 } %9, 0
  %11 = extractvalue { i8*, i32 } %9, 1
  %12 = getelementptr inbounds { i8*, i32 }, { i8*, i32 }* %1, i32 0, i32 0
  store i8* %10, i8** %12, align 8
  %13 = getelementptr inbounds { i8*, i32 }, { i8*, i32 }* %1, i32 0, i32 1
  store i32 %11, i32* %13, align 8
  br label %bb3
}

; core::ptr::drop_in_place
; Function Attrs: uwtable
define internal void @_ZN4core3ptr13drop_in_place17h058b07e24c4cbe62E(%"core::alloc::layout::LayoutErr"* %_1) unnamed_addr #1 {
start:
  ret void
}

; core::ptr::drop_in_place
; Function Attrs: uwtable
define internal void @_ZN4core3ptr13drop_in_place17h1aabeb5d265a4af7E(%"alloc::vec::Vec<u8>"* %_1) unnamed_addr #1 personality i32 (i32, i32, i64, %"unwind::libunwind::_Unwind_Exception"*, %"unwind::libunwind::_Unwind_Context"*)* @rust_eh_personality {
start:
  %0 = alloca { i8*, i32 }, align 8
; invoke <alloc::vec::Vec<T> as core::ops::drop::Drop>::drop
  invoke void @"_ZN66_$LT$alloc..vec..Vec$LT$T$GT$$u20$as$u20$core..ops..drop..Drop$GT$4drop17h9d9863702a051502E"(%"alloc::vec::Vec<u8>"* align 8 dereferenceable(24) %_1)
          to label %bb4 unwind label %cleanup

bb1:                                              ; preds = %bb3
  %1 = bitcast { i8*, i32 }* %0 to i8**
  %2 = load i8*, i8** %1, align 8
  %3 = getelementptr inbounds { i8*, i32 }, { i8*, i32 }* %0, i32 0, i32 1
  %4 = load i32, i32* %3, align 8
  %5 = insertvalue { i8*, i32 } undef, i8* %2, 0
  %6 = insertvalue { i8*, i32 } %5, i32 %4, 1
  resume { i8*, i32 } %6

bb2:                                              ; preds = %bb4
  ret void

bb3:                                              ; preds = %cleanup
  %7 = bitcast %"alloc::vec::Vec<u8>"* %_1 to { i8*, i64 }*
; call core::ptr::drop_in_place
  call void @_ZN4core3ptr13drop_in_place17h87df3a7abb20d496E({ i8*, i64 }* %7) #11
  br label %bb1

bb4:                                              ; preds = %start
  %8 = bitcast %"alloc::vec::Vec<u8>"* %_1 to { i8*, i64 }*
; call core::ptr::drop_in_place
  call void @_ZN4core3ptr13drop_in_place17h87df3a7abb20d496E({ i8*, i64 }* %8)
  br label %bb2

cleanup:                                          ; preds = %start
  %9 = landingpad { i8*, i32 }
          cleanup
  %10 = extractvalue { i8*, i32 } %9, 0
  %11 = extractvalue { i8*, i32 } %9, 1
  %12 = getelementptr inbounds { i8*, i32 }, { i8*, i32 }* %0, i32 0, i32 0
  store i8* %10, i8** %12, align 8
  %13 = getelementptr inbounds { i8*, i32 }, { i8*, i32 }* %0, i32 0, i32 1
  store i32 %11, i32* %13, align 8
  br label %bb3
}

; core::ptr::drop_in_place
; Function Attrs: uwtable
define internal void @_ZN4core3ptr13drop_in_place17h73f425f79c40baadE(%"test_extention_method_on_vector::Wrapper"* %_1) unnamed_addr #1 {
start:
  %0 = bitcast %"test_extention_method_on_vector::Wrapper"* %_1 to %"alloc::vec::Vec<alloc::string::String>"*
; call core::ptr::drop_in_place
  call void @_ZN4core3ptr13drop_in_place17ha52e42989f785749E(%"alloc::vec::Vec<alloc::string::String>"* %0)
  br label %bb1

bb1:                                              ; preds = %start
  ret void
}

; core::ptr::drop_in_place
; Function Attrs: uwtable
define internal void @_ZN4core3ptr13drop_in_place17h87df3a7abb20d496E({ i8*, i64 }* %_1) unnamed_addr #1 {
start:
; call <alloc::raw_vec::RawVec<T,A> as core::ops::drop::Drop>::drop
  call void @"_ZN77_$LT$alloc..raw_vec..RawVec$LT$T$C$A$GT$$u20$as$u20$core..ops..drop..Drop$GT$4drop17h2b3378754658c541E"({ i8*, i64 }* align 8 dereferenceable(16) %_1)
  br label %bb1

bb1:                                              ; preds = %start
  ret void
}

; core::ptr::drop_in_place
; Function Attrs: uwtable
define internal void @_ZN4core3ptr13drop_in_place17h95005d69b87496d6E([0 x %"alloc::string::String"]* %_1.0, i64 %_1.1) unnamed_addr #1 personality i32 (i32, i32, i64, %"unwind::libunwind::_Unwind_Exception"*, %"unwind::libunwind::_Unwind_Context"*)* @rust_eh_personality {
start:
  %0 = alloca { i8*, i32 }, align 8
  %_10 = alloca %"alloc::string::String"*, align 8
  %_9 = alloca %"alloc::string::String"*, align 8
  %_4 = alloca i64, align 8
  br i1 false, label %bb7, label %bb12

bb1:                                              ; preds = %bb6, %bb11
  ret void

bb2:                                              ; preds = %bb4, %bb9
  %1 = bitcast { i8*, i32 }* %0 to i8**
  %2 = load i8*, i8** %1, align 8
  %3 = getelementptr inbounds { i8*, i32 }, { i8*, i32 }* %0, i32 0, i32 1
  %4 = load i32, i32* %3, align 8
  %5 = insertvalue { i8*, i32 } undef, i8* %2, 0
  %6 = insertvalue { i8*, i32 } %5, i32 %4, 1
  resume { i8*, i32 } %6

bb3:                                              ; preds = %bb4
  %7 = load i64, i64* %_4, align 8
  %_5 = getelementptr inbounds [0 x %"alloc::string::String"], [0 x %"alloc::string::String"]* %_1.0, i64 0, i64 %7
  %8 = load i64, i64* %_4, align 8
  %9 = add i64 %8, 1
  store i64 %9, i64* %_4, align 8
; call core::ptr::drop_in_place
  call void @_ZN4core3ptr13drop_in_place17hc07cdc895531ef5aE(%"alloc::string::String"* %_5) #11
  br label %bb4

bb4:                                              ; preds = %bb3, %cleanup1
  %10 = load i64, i64* %_4, align 8
  %_6 = icmp eq i64 %10, %_1.1
  br i1 %_6, label %bb2, label %bb3

bb5:                                              ; preds = %bb6
  %11 = load i64, i64* %_4, align 8
  %_7 = getelementptr inbounds [0 x %"alloc::string::String"], [0 x %"alloc::string::String"]* %_1.0, i64 0, i64 %11
  %12 = load i64, i64* %_4, align 8
  %13 = add i64 %12, 1
  store i64 %13, i64* %_4, align 8
; invoke core::ptr::drop_in_place
  invoke void @_ZN4core3ptr13drop_in_place17hc07cdc895531ef5aE(%"alloc::string::String"* %_7)
          to label %bb6 unwind label %cleanup1

bb6:                                              ; preds = %bb5, %bb7
  %14 = load i64, i64* %_4, align 8
  %_8 = icmp eq i64 %14, %_1.1
  br i1 %_8, label %bb1, label %bb5

bb7:                                              ; preds = %start
  store i64 0, i64* %_4, align 8
  br label %bb6

bb8:                                              ; preds = %bb9
  %_11 = load %"alloc::string::String"*, %"alloc::string::String"** %_9, align 8
  %15 = load %"alloc::string::String"*, %"alloc::string::String"** %_9, align 8
  %16 = getelementptr inbounds %"alloc::string::String", %"alloc::string::String"* %15, i64 1
  store %"alloc::string::String"* %16, %"alloc::string::String"** %_9, align 8
; call core::ptr::drop_in_place
  call void @_ZN4core3ptr13drop_in_place17hc07cdc895531ef5aE(%"alloc::string::String"* %_11) #11
  br label %bb9

bb9:                                              ; preds = %bb8, %cleanup
  %17 = load %"alloc::string::String"*, %"alloc::string::String"** %_9, align 8
  %18 = load %"alloc::string::String"*, %"alloc::string::String"** %_10, align 8
  %_12 = icmp eq %"alloc::string::String"* %17, %18
  br i1 %_12, label %bb2, label %bb8

bb10:                                             ; preds = %bb11
  %_13 = load %"alloc::string::String"*, %"alloc::string::String"** %_9, align 8
  %19 = load %"alloc::string::String"*, %"alloc::string::String"** %_9, align 8
  %20 = getelementptr inbounds %"alloc::string::String", %"alloc::string::String"* %19, i64 1
  store %"alloc::string::String"* %20, %"alloc::string::String"** %_9, align 8
; invoke core::ptr::drop_in_place
  invoke void @_ZN4core3ptr13drop_in_place17hc07cdc895531ef5aE(%"alloc::string::String"* %_13)
          to label %bb11 unwind label %cleanup

bb11:                                             ; preds = %bb10, %bb12
  %21 = load %"alloc::string::String"*, %"alloc::string::String"** %_9, align 8
  %22 = load %"alloc::string::String"*, %"alloc::string::String"** %_10, align 8
  %_14 = icmp eq %"alloc::string::String"* %21, %22
  br i1 %_14, label %bb1, label %bb10

bb12:                                             ; preds = %start
  %23 = bitcast [0 x %"alloc::string::String"]* %_1.0 to %"alloc::string::String"*
  store %"alloc::string::String"* %23, %"alloc::string::String"** %_9, align 8
  %24 = load %"alloc::string::String"*, %"alloc::string::String"** %_9, align 8
  %25 = getelementptr inbounds %"alloc::string::String", %"alloc::string::String"* %24, i64 %_1.1
  store %"alloc::string::String"* %25, %"alloc::string::String"** %_10, align 8
  br label %bb11

cleanup:                                          ; preds = %bb10
  %26 = landingpad { i8*, i32 }
          cleanup
  %27 = extractvalue { i8*, i32 } %26, 0
  %28 = extractvalue { i8*, i32 } %26, 1
  %29 = getelementptr inbounds { i8*, i32 }, { i8*, i32 }* %0, i32 0, i32 0
  store i8* %27, i8** %29, align 8
  %30 = getelementptr inbounds { i8*, i32 }, { i8*, i32 }* %0, i32 0, i32 1
  store i32 %28, i32* %30, align 8
  br label %bb9

cleanup1:                                         ; preds = %bb5
  %31 = landingpad { i8*, i32 }
          cleanup
  %32 = extractvalue { i8*, i32 } %31, 0
  %33 = extractvalue { i8*, i32 } %31, 1
  %34 = getelementptr inbounds { i8*, i32 }, { i8*, i32 }* %0, i32 0, i32 0
  store i8* %32, i8** %34, align 8
  %35 = getelementptr inbounds { i8*, i32 }, { i8*, i32 }* %0, i32 0, i32 1
  store i32 %33, i32* %35, align 8
  br label %bb4
}

; core::ptr::drop_in_place
; Function Attrs: uwtable
define internal void @_ZN4core3ptr13drop_in_place17ha52e42989f785749E(%"alloc::vec::Vec<alloc::string::String>"* %_1) unnamed_addr #1 personality i32 (i32, i32, i64, %"unwind::libunwind::_Unwind_Exception"*, %"unwind::libunwind::_Unwind_Context"*)* @rust_eh_personality {
start:
  %0 = alloca { i8*, i32 }, align 8
; invoke <alloc::vec::Vec<T> as core::ops::drop::Drop>::drop
  invoke void @"_ZN66_$LT$alloc..vec..Vec$LT$T$GT$$u20$as$u20$core..ops..drop..Drop$GT$4drop17hec08f2592ce76dc5E"(%"alloc::vec::Vec<alloc::string::String>"* align 8 dereferenceable(24) %_1)
          to label %bb4 unwind label %cleanup

bb1:                                              ; preds = %bb3
  %1 = bitcast { i8*, i32 }* %0 to i8**
  %2 = load i8*, i8** %1, align 8
  %3 = getelementptr inbounds { i8*, i32 }, { i8*, i32 }* %0, i32 0, i32 1
  %4 = load i32, i32* %3, align 8
  %5 = insertvalue { i8*, i32 } undef, i8* %2, 0
  %6 = insertvalue { i8*, i32 } %5, i32 %4, 1
  resume { i8*, i32 } %6

bb2:                                              ; preds = %bb4
  ret void

bb3:                                              ; preds = %cleanup
  %7 = bitcast %"alloc::vec::Vec<alloc::string::String>"* %_1 to { i64*, i64 }*
; call core::ptr::drop_in_place
  call void @_ZN4core3ptr13drop_in_place17ha6753657b55eef8eE({ i64*, i64 }* %7) #11
  br label %bb1

bb4:                                              ; preds = %start
  %8 = bitcast %"alloc::vec::Vec<alloc::string::String>"* %_1 to { i64*, i64 }*
; call core::ptr::drop_in_place
  call void @_ZN4core3ptr13drop_in_place17ha6753657b55eef8eE({ i64*, i64 }* %8)
  br label %bb2

cleanup:                                          ; preds = %start
  %9 = landingpad { i8*, i32 }
          cleanup
  %10 = extractvalue { i8*, i32 } %9, 0
  %11 = extractvalue { i8*, i32 } %9, 1
  %12 = getelementptr inbounds { i8*, i32 }, { i8*, i32 }* %0, i32 0, i32 0
  store i8* %10, i8** %12, align 8
  %13 = getelementptr inbounds { i8*, i32 }, { i8*, i32 }* %0, i32 0, i32 1
  store i32 %11, i32* %13, align 8
  br label %bb3
}

; core::ptr::drop_in_place
; Function Attrs: uwtable
define internal void @_ZN4core3ptr13drop_in_place17ha6753657b55eef8eE({ i64*, i64 }* %_1) unnamed_addr #1 {
start:
; call <alloc::raw_vec::RawVec<T,A> as core::ops::drop::Drop>::drop
  call void @"_ZN77_$LT$alloc..raw_vec..RawVec$LT$T$C$A$GT$$u20$as$u20$core..ops..drop..Drop$GT$4drop17h7e86a212d3e9d671E"({ i64*, i64 }* align 8 dereferenceable(16) %_1)
  br label %bb1

bb1:                                              ; preds = %start
  ret void
}

; core::ptr::drop_in_place
; Function Attrs: uwtable
define internal void @_ZN4core3ptr13drop_in_place17haa61707809ad2124E(i8** %_1) unnamed_addr #1 {
start:
  ret void
}

; core::ptr::drop_in_place
; Function Attrs: uwtable
define internal void @_ZN4core3ptr13drop_in_place17hb7476750820ab627E({ [0 x %"alloc::string::String"]*, i64 }* %_1) unnamed_addr #1 personality i32 (i32, i32, i64, %"unwind::libunwind::_Unwind_Exception"*, %"unwind::libunwind::_Unwind_Context"*)* @rust_eh_personality {
start:
  %0 = alloca { i8*, i32 }, align 8
  %1 = getelementptr inbounds { [0 x %"alloc::string::String"]*, i64 }, { [0 x %"alloc::string::String"]*, i64 }* %_1, i32 0, i32 0
  %2 = load [0 x %"alloc::string::String"]*, [0 x %"alloc::string::String"]** %1, align 8, !nonnull !2
  %3 = getelementptr inbounds { [0 x %"alloc::string::String"]*, i64 }, { [0 x %"alloc::string::String"]*, i64 }* %_1, i32 0, i32 1
  %4 = load i64, i64* %3, align 8
; invoke core::ptr::drop_in_place
  invoke void @_ZN4core3ptr13drop_in_place17h95005d69b87496d6E([0 x %"alloc::string::String"]* %2, i64 %4)
          to label %bb3 unwind label %cleanup

bb1:                                              ; preds = %bb3
  ret void

bb2:                                              ; preds = %bb4
  %5 = bitcast { i8*, i32 }* %0 to i8**
  %6 = load i8*, i8** %5, align 8
  %7 = getelementptr inbounds { i8*, i32 }, { i8*, i32 }* %0, i32 0, i32 1
  %8 = load i32, i32* %7, align 8
  %9 = insertvalue { i8*, i32 } undef, i8* %6, 0
  %10 = insertvalue { i8*, i32 } %9, i32 %8, 1
  resume { i8*, i32 } %10

bb3:                                              ; preds = %start
  %11 = bitcast { [0 x %"alloc::string::String"]*, i64 }* %_1 to { i64*, i64 }*
  %12 = getelementptr inbounds { i64*, i64 }, { i64*, i64 }* %11, i32 0, i32 0
  %13 = load i64*, i64** %12, align 8, !nonnull !2
  %14 = getelementptr inbounds { i64*, i64 }, { i64*, i64 }* %11, i32 0, i32 1
  %15 = load i64, i64* %14, align 8
; call alloc::alloc::box_free
  call void @_ZN5alloc5alloc8box_free17h2bbdd6ba263c8743E(i64* nonnull %13, i64 %15)
  br label %bb1

bb4:                                              ; preds = %cleanup
  %16 = bitcast { [0 x %"alloc::string::String"]*, i64 }* %_1 to { i64*, i64 }*
  %17 = getelementptr inbounds { i64*, i64 }, { i64*, i64 }* %16, i32 0, i32 0
  %18 = load i64*, i64** %17, align 8, !nonnull !2
  %19 = getelementptr inbounds { i64*, i64 }, { i64*, i64 }* %16, i32 0, i32 1
  %20 = load i64, i64* %19, align 8
; call alloc::alloc::box_free
  call void @_ZN5alloc5alloc8box_free17h2bbdd6ba263c8743E(i64* nonnull %18, i64 %20) #11
  br label %bb2

cleanup:                                          ; preds = %start
  %21 = landingpad { i8*, i32 }
          cleanup
  %22 = extractvalue { i8*, i32 } %21, 0
  %23 = extractvalue { i8*, i32 } %21, 1
  %24 = getelementptr inbounds { i8*, i32 }, { i8*, i32 }* %0, i32 0, i32 0
  store i8* %22, i8** %24, align 8
  %25 = getelementptr inbounds { i8*, i32 }, { i8*, i32 }* %0, i32 0, i32 1
  store i32 %23, i32* %25, align 8
  br label %bb4
}

; core::ptr::drop_in_place
; Function Attrs: uwtable
define internal void @_ZN4core3ptr13drop_in_place17hc07cdc895531ef5aE(%"alloc::string::String"* %_1) unnamed_addr #1 {
start:
  %0 = bitcast %"alloc::string::String"* %_1 to %"alloc::vec::Vec<u8>"*
; call core::ptr::drop_in_place
  call void @_ZN4core3ptr13drop_in_place17h1aabeb5d265a4af7E(%"alloc::vec::Vec<u8>"* %0)
  br label %bb1

bb1:                                              ; preds = %start
  ret void
}

; core::ptr::slice_from_raw_parts
; Function Attrs: inlinehint uwtable
define internal { [0 x i8]*, i64 } @_ZN4core3ptr20slice_from_raw_parts17h4aebc4252150b395E(i8* %data, i64 %len) unnamed_addr #0 {
start:
  %_4 = alloca { i8*, i64 }, align 8
  %_3 = alloca %"core::ptr::Repr<u8>", align 8
  %0 = bitcast { i8*, i64 }* %_4 to i8**
  store i8* %data, i8** %0, align 8
  %1 = getelementptr inbounds { i8*, i64 }, { i8*, i64 }* %_4, i32 0, i32 1
  store i64 %len, i64* %1, align 8
  %2 = bitcast %"core::ptr::Repr<u8>"* %_3 to { i8*, i64 }*
  %3 = getelementptr inbounds { i8*, i64 }, { i8*, i64 }* %_4, i32 0, i32 0
  %4 = load i8*, i8** %3, align 8
  %5 = getelementptr inbounds { i8*, i64 }, { i8*, i64 }* %_4, i32 0, i32 1
  %6 = load i64, i64* %5, align 8
  %7 = getelementptr inbounds { i8*, i64 }, { i8*, i64 }* %2, i32 0, i32 0
  store i8* %4, i8** %7, align 8
  %8 = getelementptr inbounds { i8*, i64 }, { i8*, i64 }* %2, i32 0, i32 1
  store i64 %6, i64* %8, align 8
  %9 = bitcast %"core::ptr::Repr<u8>"* %_3 to { [0 x i8]*, i64 }*
  %10 = getelementptr inbounds { [0 x i8]*, i64 }, { [0 x i8]*, i64 }* %9, i32 0, i32 0
  %11 = load [0 x i8]*, [0 x i8]** %10, align 8
  %12 = getelementptr inbounds { [0 x i8]*, i64 }, { [0 x i8]*, i64 }* %9, i32 0, i32 1
  %13 = load i64, i64* %12, align 8
  %14 = insertvalue { [0 x i8]*, i64 } undef, [0 x i8]* %11, 0
  %15 = insertvalue { [0 x i8]*, i64 } %14, i64 %13, 1
  ret { [0 x i8]*, i64 } %15
}

; core::ptr::slice_from_raw_parts
; Function Attrs: inlinehint uwtable
define internal { [0 x %"alloc::string::String"]*, i64 } @_ZN4core3ptr20slice_from_raw_parts17h6fdce1999aa82852E(%"alloc::string::String"* %data, i64 %len) unnamed_addr #0 {
start:
  %_4 = alloca { i64*, i64 }, align 8
  %_3 = alloca %"core::ptr::Repr<alloc::string::String>", align 8
  %0 = bitcast { i64*, i64 }* %_4 to %"alloc::string::String"**
  store %"alloc::string::String"* %data, %"alloc::string::String"** %0, align 8
  %1 = getelementptr inbounds { i64*, i64 }, { i64*, i64 }* %_4, i32 0, i32 1
  store i64 %len, i64* %1, align 8
  %2 = bitcast %"core::ptr::Repr<alloc::string::String>"* %_3 to { i64*, i64 }*
  %3 = getelementptr inbounds { i64*, i64 }, { i64*, i64 }* %_4, i32 0, i32 0
  %4 = load i64*, i64** %3, align 8
  %5 = getelementptr inbounds { i64*, i64 }, { i64*, i64 }* %_4, i32 0, i32 1
  %6 = load i64, i64* %5, align 8
  %7 = getelementptr inbounds { i64*, i64 }, { i64*, i64 }* %2, i32 0, i32 0
  store i64* %4, i64** %7, align 8
  %8 = getelementptr inbounds { i64*, i64 }, { i64*, i64 }* %2, i32 0, i32 1
  store i64 %6, i64* %8, align 8
  %9 = bitcast %"core::ptr::Repr<alloc::string::String>"* %_3 to { [0 x %"alloc::string::String"]*, i64 }*
  %10 = getelementptr inbounds { [0 x %"alloc::string::String"]*, i64 }, { [0 x %"alloc::string::String"]*, i64 }* %9, i32 0, i32 0
  %11 = load [0 x %"alloc::string::String"]*, [0 x %"alloc::string::String"]** %10, align 8
  %12 = getelementptr inbounds { [0 x %"alloc::string::String"]*, i64 }, { [0 x %"alloc::string::String"]*, i64 }* %9, i32 0, i32 1
  %13 = load i64, i64* %12, align 8
  %14 = insertvalue { [0 x %"alloc::string::String"]*, i64 } undef, [0 x %"alloc::string::String"]* %11, 0
  %15 = insertvalue { [0 x %"alloc::string::String"]*, i64 } %14, i64 %13, 1
  ret { [0 x %"alloc::string::String"]*, i64 } %15
}

; core::ptr::slice_from_raw_parts_mut
; Function Attrs: inlinehint uwtable
define internal { [0 x i8]*, i64 } @_ZN4core3ptr24slice_from_raw_parts_mut17h5508d02a391d8df2E(i8* %data, i64 %len) unnamed_addr #0 {
start:
  %_4 = alloca { i8*, i64 }, align 8
  %_3 = alloca %"core::ptr::Repr<u8>", align 8
  %0 = bitcast { i8*, i64 }* %_4 to i8**
  store i8* %data, i8** %0, align 8
  %1 = getelementptr inbounds { i8*, i64 }, { i8*, i64 }* %_4, i32 0, i32 1
  store i64 %len, i64* %1, align 8
  %2 = bitcast %"core::ptr::Repr<u8>"* %_3 to { i8*, i64 }*
  %3 = getelementptr inbounds { i8*, i64 }, { i8*, i64 }* %_4, i32 0, i32 0
  %4 = load i8*, i8** %3, align 8
  %5 = getelementptr inbounds { i8*, i64 }, { i8*, i64 }* %_4, i32 0, i32 1
  %6 = load i64, i64* %5, align 8
  %7 = getelementptr inbounds { i8*, i64 }, { i8*, i64 }* %2, i32 0, i32 0
  store i8* %4, i8** %7, align 8
  %8 = getelementptr inbounds { i8*, i64 }, { i8*, i64 }* %2, i32 0, i32 1
  store i64 %6, i64* %8, align 8
  %9 = bitcast %"core::ptr::Repr<u8>"* %_3 to { [0 x i8]*, i64 }*
  %10 = getelementptr inbounds { [0 x i8]*, i64 }, { [0 x i8]*, i64 }* %9, i32 0, i32 0
  %11 = load [0 x i8]*, [0 x i8]** %10, align 8
  %12 = getelementptr inbounds { [0 x i8]*, i64 }, { [0 x i8]*, i64 }* %9, i32 0, i32 1
  %13 = load i64, i64* %12, align 8
  %14 = insertvalue { [0 x i8]*, i64 } undef, [0 x i8]* %11, 0
  %15 = insertvalue { [0 x i8]*, i64 } %14, i64 %13, 1
  ret { [0 x i8]*, i64 } %15
}

; core::ptr::slice_from_raw_parts_mut
; Function Attrs: inlinehint uwtable
define internal { [0 x %"alloc::string::String"]*, i64 } @_ZN4core3ptr24slice_from_raw_parts_mut17hf768f3c181d3a6b7E(%"alloc::string::String"* %data, i64 %len) unnamed_addr #0 {
start:
  %_4 = alloca { i64*, i64 }, align 8
  %_3 = alloca %"core::ptr::Repr<alloc::string::String>", align 8
  %0 = bitcast { i64*, i64 }* %_4 to %"alloc::string::String"**
  store %"alloc::string::String"* %data, %"alloc::string::String"** %0, align 8
  %1 = getelementptr inbounds { i64*, i64 }, { i64*, i64 }* %_4, i32 0, i32 1
  store i64 %len, i64* %1, align 8
  %2 = bitcast %"core::ptr::Repr<alloc::string::String>"* %_3 to { i64*, i64 }*
  %3 = getelementptr inbounds { i64*, i64 }, { i64*, i64 }* %_4, i32 0, i32 0
  %4 = load i64*, i64** %3, align 8
  %5 = getelementptr inbounds { i64*, i64 }, { i64*, i64 }* %_4, i32 0, i32 1
  %6 = load i64, i64* %5, align 8
  %7 = getelementptr inbounds { i64*, i64 }, { i64*, i64 }* %2, i32 0, i32 0
  store i64* %4, i64** %7, align 8
  %8 = getelementptr inbounds { i64*, i64 }, { i64*, i64 }* %2, i32 0, i32 1
  store i64 %6, i64* %8, align 8
  %9 = bitcast %"core::ptr::Repr<alloc::string::String>"* %_3 to { [0 x %"alloc::string::String"]*, i64 }*
  %10 = getelementptr inbounds { [0 x %"alloc::string::String"]*, i64 }, { [0 x %"alloc::string::String"]*, i64 }* %9, i32 0, i32 0
  %11 = load [0 x %"alloc::string::String"]*, [0 x %"alloc::string::String"]** %10, align 8
  %12 = getelementptr inbounds { [0 x %"alloc::string::String"]*, i64 }, { [0 x %"alloc::string::String"]*, i64 }* %9, i32 0, i32 1
  %13 = load i64, i64* %12, align 8
  %14 = insertvalue { [0 x %"alloc::string::String"]*, i64 } undef, [0 x %"alloc::string::String"]* %11, 0
  %15 = insertvalue { [0 x %"alloc::string::String"]*, i64 } %14, i64 %13, 1
  ret { [0 x %"alloc::string::String"]*, i64 } %15
}

; core::ptr::unique::Unique<T>::new_unchecked
; Function Attrs: inlinehint uwtable
define internal nonnull i64* @"_ZN4core3ptr6unique15Unique$LT$T$GT$13new_unchecked17h5c02baabb7028f89E"(%"alloc::string::String"* %ptr) unnamed_addr #0 {
start:
  %_5 = alloca %"core::marker::PhantomData<alloc::string::String>", align 1
  %0 = alloca i64*, align 8
  %1 = bitcast i64** %0 to %"alloc::string::String"**
  store %"alloc::string::String"* %ptr, %"alloc::string::String"** %1, align 8
  %2 = bitcast i64** %0 to %"core::marker::PhantomData<alloc::string::String>"*
  %3 = load i64*, i64** %0, align 8, !nonnull !2
  ret i64* %3
}

; core::ptr::unique::Unique<T>::new_unchecked
; Function Attrs: inlinehint uwtable
define internal { i64*, i64 } @"_ZN4core3ptr6unique15Unique$LT$T$GT$13new_unchecked17h7b17bc062179e52eE"([0 x %"alloc::string::String"]* %ptr.0, i64 %ptr.1) unnamed_addr #0 {
start:
  %_5 = alloca %"core::marker::PhantomData<[alloc::string::String]>", align 1
  %0 = alloca { i64*, i64 }, align 8
  %1 = bitcast { i64*, i64 }* %0 to { [0 x %"alloc::string::String"]*, i64 }*
  %2 = getelementptr inbounds { [0 x %"alloc::string::String"]*, i64 }, { [0 x %"alloc::string::String"]*, i64 }* %1, i32 0, i32 0
  store [0 x %"alloc::string::String"]* %ptr.0, [0 x %"alloc::string::String"]** %2, align 8
  %3 = getelementptr inbounds { [0 x %"alloc::string::String"]*, i64 }, { [0 x %"alloc::string::String"]*, i64 }* %1, i32 0, i32 1
  store i64 %ptr.1, i64* %3, align 8
  %4 = bitcast { i64*, i64 }* %0 to %"core::marker::PhantomData<[alloc::string::String]>"*
  %5 = getelementptr inbounds { i64*, i64 }, { i64*, i64 }* %0, i32 0, i32 0
  %6 = load i64*, i64** %5, align 8, !nonnull !2
  %7 = getelementptr inbounds { i64*, i64 }, { i64*, i64 }* %0, i32 0, i32 1
  %8 = load i64, i64* %7, align 8
  %9 = insertvalue { i64*, i64 } undef, i64* %6, 0
  %10 = insertvalue { i64*, i64 } %9, i64 %8, 1
  ret { i64*, i64 } %10
}

; core::ptr::unique::Unique<T>::new_unchecked
; Function Attrs: inlinehint uwtable
define internal nonnull i8* @"_ZN4core3ptr6unique15Unique$LT$T$GT$13new_unchecked17heb36ef62f825bd46E"(i8* %ptr) unnamed_addr #0 {
start:
  %_5 = alloca %"core::marker::PhantomData<u8>", align 1
  %0 = alloca i8*, align 8
  store i8* %ptr, i8** %0, align 8
  %1 = bitcast i8** %0 to %"core::marker::PhantomData<u8>"*
  %2 = load i8*, i8** %0, align 8, !nonnull !2
  ret i8* %2
}

; core::ptr::unique::Unique<T>::cast
; Function Attrs: inlinehint uwtable
define internal nonnull i8* @"_ZN4core3ptr6unique15Unique$LT$T$GT$4cast17h0e2a194b7c9d0cb9E"(i64* nonnull %self) unnamed_addr #0 {
start:
; call core::ptr::unique::Unique<T>::as_ptr
  %_3 = call %"alloc::string::String"* @"_ZN4core3ptr6unique15Unique$LT$T$GT$6as_ptr17h949b7bb2ff73dcefE"(i64* nonnull %self)
  br label %bb1

bb1:                                              ; preds = %start
  %_2 = bitcast %"alloc::string::String"* %_3 to i8*
; call core::ptr::unique::Unique<T>::new_unchecked
  %0 = call nonnull i8* @"_ZN4core3ptr6unique15Unique$LT$T$GT$13new_unchecked17heb36ef62f825bd46E"(i8* %_2)
  br label %bb2

bb2:                                              ; preds = %bb1
  ret i8* %0
}

; core::ptr::unique::Unique<T>::cast
; Function Attrs: inlinehint uwtable
define internal nonnull i8* @"_ZN4core3ptr6unique15Unique$LT$T$GT$4cast17h6286bf2bb6f85cc8E"(i8* nonnull %self) unnamed_addr #0 {
start:
; call core::ptr::unique::Unique<T>::as_ptr
  %_3 = call i8* @"_ZN4core3ptr6unique15Unique$LT$T$GT$6as_ptr17h57c50b4d447096b5E"(i8* nonnull %self)
  br label %bb1

bb1:                                              ; preds = %start
; call core::ptr::unique::Unique<T>::new_unchecked
  %0 = call nonnull i8* @"_ZN4core3ptr6unique15Unique$LT$T$GT$13new_unchecked17heb36ef62f825bd46E"(i8* %_3)
  br label %bb2

bb2:                                              ; preds = %bb1
  ret i8* %0
}

; core::ptr::unique::Unique<T>::cast
; Function Attrs: inlinehint uwtable
define internal nonnull i8* @"_ZN4core3ptr6unique15Unique$LT$T$GT$4cast17haf90ba9c0bd00818E"(i64* nonnull %self) unnamed_addr #0 {
start:
; call core::ptr::unique::Unique<T>::as_ptr
  %_3 = call [2 x %"alloc::string::String"]* @"_ZN4core3ptr6unique15Unique$LT$T$GT$6as_ptr17h3bbfacb0854206c0E"(i64* nonnull %self)
  br label %bb1

bb1:                                              ; preds = %start
  %_2 = bitcast [2 x %"alloc::string::String"]* %_3 to i8*
; call core::ptr::unique::Unique<T>::new_unchecked
  %0 = call nonnull i8* @"_ZN4core3ptr6unique15Unique$LT$T$GT$13new_unchecked17heb36ef62f825bd46E"(i8* %_2)
  br label %bb2

bb2:                                              ; preds = %bb1
  ret i8* %0
}

; core::ptr::unique::Unique<T>::cast
; Function Attrs: inlinehint uwtable
define internal nonnull i8* @"_ZN4core3ptr6unique15Unique$LT$T$GT$4cast17hc1daf7768b546b47E"(i64* nonnull %self.0, i64 %self.1) unnamed_addr #0 {
start:
; call core::ptr::unique::Unique<T>::as_ptr
  %0 = call { [0 x %"alloc::string::String"]*, i64 } @"_ZN4core3ptr6unique15Unique$LT$T$GT$6as_ptr17hacd665cd53f50860E"(i64* nonnull %self.0, i64 %self.1)
  %_3.0 = extractvalue { [0 x %"alloc::string::String"]*, i64 } %0, 0
  %_3.1 = extractvalue { [0 x %"alloc::string::String"]*, i64 } %0, 1
  br label %bb1

bb1:                                              ; preds = %start
  %_2 = bitcast [0 x %"alloc::string::String"]* %_3.0 to i8*
; call core::ptr::unique::Unique<T>::new_unchecked
  %1 = call nonnull i8* @"_ZN4core3ptr6unique15Unique$LT$T$GT$13new_unchecked17heb36ef62f825bd46E"(i8* %_2)
  br label %bb2

bb2:                                              ; preds = %bb1
  ret i8* %1
}

; core::ptr::unique::Unique<T>::empty
; Function Attrs: inlinehint uwtable
define internal nonnull i8* @"_ZN4core3ptr6unique15Unique$LT$T$GT$5empty17hefccdd281d4495b6E"() unnamed_addr #0 {
start:
  %0 = alloca i64, align 8
  store i64 1, i64* %0, align 8
  %1 = load i64, i64* %0, align 8
  br label %bb1

bb1:                                              ; preds = %start
  %_1 = inttoptr i64 %1 to i8*
; call core::ptr::unique::Unique<T>::new_unchecked
  %2 = call nonnull i8* @"_ZN4core3ptr6unique15Unique$LT$T$GT$13new_unchecked17heb36ef62f825bd46E"(i8* %_1)
  br label %bb2

bb2:                                              ; preds = %bb1
  ret i8* %2
}

; core::ptr::unique::Unique<T>::as_mut
; Function Attrs: inlinehint uwtable
define internal { [0 x %"alloc::string::String"]*, i64 } @"_ZN4core3ptr6unique15Unique$LT$T$GT$6as_mut17hcf28db3ee4f21e20E"({ i64*, i64 }* align 8 dereferenceable(16) %self) unnamed_addr #0 {
start:
  %0 = getelementptr inbounds { i64*, i64 }, { i64*, i64 }* %self, i32 0, i32 0
  %_5.0 = load i64*, i64** %0, align 8, !nonnull !2
  %1 = getelementptr inbounds { i64*, i64 }, { i64*, i64 }* %self, i32 0, i32 1
  %_5.1 = load i64, i64* %1, align 8
; call core::ptr::unique::Unique<T>::as_ptr
  %2 = call { [0 x %"alloc::string::String"]*, i64 } @"_ZN4core3ptr6unique15Unique$LT$T$GT$6as_ptr17hacd665cd53f50860E"(i64* nonnull %_5.0, i64 %_5.1)
  %_4.0 = extractvalue { [0 x %"alloc::string::String"]*, i64 } %2, 0
  %_4.1 = extractvalue { [0 x %"alloc::string::String"]*, i64 } %2, 1
  br label %bb1

bb1:                                              ; preds = %start
  %3 = insertvalue { [0 x %"alloc::string::String"]*, i64 } undef, [0 x %"alloc::string::String"]* %_4.0, 0
  %4 = insertvalue { [0 x %"alloc::string::String"]*, i64 } %3, i64 %_4.1, 1
  ret { [0 x %"alloc::string::String"]*, i64 } %4
}

; core::ptr::unique::Unique<T>::as_ptr
; Function Attrs: inlinehint uwtable
define internal [2 x %"alloc::string::String"]* @"_ZN4core3ptr6unique15Unique$LT$T$GT$6as_ptr17h3bbfacb0854206c0E"(i64* nonnull %self) unnamed_addr #0 {
start:
  %_2 = bitcast i64* %self to [2 x %"alloc::string::String"]*
  ret [2 x %"alloc::string::String"]* %_2
}

; core::ptr::unique::Unique<T>::as_ptr
; Function Attrs: inlinehint uwtable
define internal i8* @"_ZN4core3ptr6unique15Unique$LT$T$GT$6as_ptr17h57c50b4d447096b5E"(i8* nonnull %self) unnamed_addr #0 {
start:
  ret i8* %self
}

; core::ptr::unique::Unique<T>::as_ptr
; Function Attrs: inlinehint uwtable
define internal %"alloc::string::String"* @"_ZN4core3ptr6unique15Unique$LT$T$GT$6as_ptr17h949b7bb2ff73dcefE"(i64* nonnull %self) unnamed_addr #0 {
start:
  %_2 = bitcast i64* %self to %"alloc::string::String"*
  ret %"alloc::string::String"* %_2
}

; core::ptr::unique::Unique<T>::as_ptr
; Function Attrs: inlinehint uwtable
define internal { [0 x %"alloc::string::String"]*, i64 } @"_ZN4core3ptr6unique15Unique$LT$T$GT$6as_ptr17hacd665cd53f50860E"(i64* nonnull %self.0, i64 %self.1) unnamed_addr #0 {
start:
  %_2.0 = bitcast i64* %self.0 to [0 x %"alloc::string::String"]*
  %0 = insertvalue { [0 x %"alloc::string::String"]*, i64 } undef, [0 x %"alloc::string::String"]* %_2.0, 0
  %1 = insertvalue { [0 x %"alloc::string::String"]*, i64 } %0, i64 %self.1, 1
  ret { [0 x %"alloc::string::String"]*, i64 } %1
}

; core::ptr::unique::Unique<T>::as_ref
; Function Attrs: inlinehint uwtable
define internal align 8 dereferenceable(48) [2 x %"alloc::string::String"]* @"_ZN4core3ptr6unique15Unique$LT$T$GT$6as_ref17h94eed8b4ddc3bdf7E"(i64** noalias readonly align 8 dereferenceable(8) %self) unnamed_addr #0 {
start:
  %_4 = load i64*, i64** %self, align 8, !nonnull !2
; call core::ptr::unique::Unique<T>::as_ptr
  %_3 = call [2 x %"alloc::string::String"]* @"_ZN4core3ptr6unique15Unique$LT$T$GT$6as_ptr17h3bbfacb0854206c0E"(i64* nonnull %_4)
  br label %bb1

bb1:                                              ; preds = %start
  ret [2 x %"alloc::string::String"]* %_3
}

; core::ptr::unique::Unique<T>::as_ref
; Function Attrs: inlinehint uwtable
define internal { [0 x %"alloc::string::String"]*, i64 } @"_ZN4core3ptr6unique15Unique$LT$T$GT$6as_ref17hb566b8f1e593dd24E"({ i64*, i64 }* noalias readonly align 8 dereferenceable(16) %self) unnamed_addr #0 {
start:
  %0 = getelementptr inbounds { i64*, i64 }, { i64*, i64 }* %self, i32 0, i32 0
  %_4.0 = load i64*, i64** %0, align 8, !nonnull !2
  %1 = getelementptr inbounds { i64*, i64 }, { i64*, i64 }* %self, i32 0, i32 1
  %_4.1 = load i64, i64* %1, align 8
; call core::ptr::unique::Unique<T>::as_ptr
  %2 = call { [0 x %"alloc::string::String"]*, i64 } @"_ZN4core3ptr6unique15Unique$LT$T$GT$6as_ptr17hacd665cd53f50860E"(i64* nonnull %_4.0, i64 %_4.1)
  %_3.0 = extractvalue { [0 x %"alloc::string::String"]*, i64 } %2, 0
  %_3.1 = extractvalue { [0 x %"alloc::string::String"]*, i64 } %2, 1
  br label %bb1

bb1:                                              ; preds = %start
  %3 = insertvalue { [0 x %"alloc::string::String"]*, i64 } undef, [0 x %"alloc::string::String"]* %_3.0, 0
  %4 = insertvalue { [0 x %"alloc::string::String"]*, i64 } %3, i64 %_3.1, 1
  ret { [0 x %"alloc::string::String"]*, i64 } %4
}

; core::ptr::mut_ptr::<impl *mut T>::write_bytes
; Function Attrs: inlinehint uwtable
define internal void @"_ZN4core3ptr7mut_ptr31_$LT$impl$u20$$BP$mut$u20$T$GT$11write_bytes17he118d9137a06c132E"(i8* %self, i8 %val, i64 %count) unnamed_addr #0 {
start:
; call core::intrinsics::write_bytes
  call void @_ZN4core10intrinsics11write_bytes17h1f1bdfab29f557b2E(i8* %self, i8 %val, i64 %count)
  br label %bb1

bb1:                                              ; preds = %start
  ret void
}

; core::ptr::mut_ptr::<impl *mut T>::add
; Function Attrs: inlinehint uwtable
define internal i8* @"_ZN4core3ptr7mut_ptr31_$LT$impl$u20$$BP$mut$u20$T$GT$3add17h9d8f05381764e279E"(i8* %self, i64 %count) unnamed_addr #0 {
start:
; call core::ptr::mut_ptr::<impl *mut T>::offset
  %0 = call i8* @"_ZN4core3ptr7mut_ptr31_$LT$impl$u20$$BP$mut$u20$T$GT$6offset17h2e32ed4553ffae7fE"(i8* %self, i64 %count)
  br label %bb1

bb1:                                              ; preds = %start
  ret i8* %0
}

; core::ptr::mut_ptr::<impl *mut T>::offset
; Function Attrs: inlinehint uwtable
define internal i8* @"_ZN4core3ptr7mut_ptr31_$LT$impl$u20$$BP$mut$u20$T$GT$6offset17h2e32ed4553ffae7fE"(i8* %self, i64 %count) unnamed_addr #0 {
start:
  %0 = alloca i8*, align 8
  %1 = getelementptr inbounds i8, i8* %self, i64 %count
  store i8* %1, i8** %0, align 8
  %_3 = load i8*, i8** %0, align 8
  br label %bb1

bb1:                                              ; preds = %start
  ret i8* %_3
}

; core::ptr::mut_ptr::<impl *mut T>::offset
; Function Attrs: inlinehint uwtable
define internal %"alloc::string::String"* @"_ZN4core3ptr7mut_ptr31_$LT$impl$u20$$BP$mut$u20$T$GT$6offset17h835789d1fd20db9dE"(%"alloc::string::String"* %self, i64 %count) unnamed_addr #0 {
start:
  %0 = alloca %"alloc::string::String"*, align 8
  %1 = getelementptr inbounds %"alloc::string::String", %"alloc::string::String"* %self, i64 %count
  store %"alloc::string::String"* %1, %"alloc::string::String"** %0, align 8
  %_3 = load %"alloc::string::String"*, %"alloc::string::String"** %0, align 8
  br label %bb1

bb1:                                              ; preds = %start
  ret %"alloc::string::String"* %_3
}

; core::ptr::mut_ptr::<impl *mut T>::is_null
; Function Attrs: inlinehint uwtable
define internal zeroext i1 @"_ZN4core3ptr7mut_ptr31_$LT$impl$u20$$BP$mut$u20$T$GT$7is_null17h4a73f18dd47d4572E"(%"alloc::string::String"* %self) unnamed_addr #0 {
start:
  %_2 = bitcast %"alloc::string::String"* %self to i8*
  br label %bb1

bb1:                                              ; preds = %start
  %0 = icmp eq i8* %_2, null
  ret i1 %0
}

; core::ptr::mut_ptr::<impl *mut T>::is_null
; Function Attrs: inlinehint uwtable
define internal zeroext i1 @"_ZN4core3ptr7mut_ptr31_$LT$impl$u20$$BP$mut$u20$T$GT$7is_null17he4b385dc7f5f5fc3E"(i8* %self) unnamed_addr #0 {
start:
  br label %bb1

bb1:                                              ; preds = %start
  %0 = icmp eq i8* %self, null
  ret i1 %0
}

; core::ptr::non_null::NonNull<T>::new_unchecked
; Function Attrs: inlinehint uwtable
define internal nonnull i64* @"_ZN4core3ptr8non_null16NonNull$LT$T$GT$13new_unchecked17h1a28f7c6af3ebc91E"(%"alloc::string::String"* %ptr) unnamed_addr #0 {
start:
  %0 = alloca i64*, align 8
  %1 = bitcast i64** %0 to %"alloc::string::String"**
  store %"alloc::string::String"* %ptr, %"alloc::string::String"** %1, align 8
  %2 = load i64*, i64** %0, align 8, !nonnull !2
  ret i64* %2
}

; core::ptr::non_null::NonNull<T>::new_unchecked
; Function Attrs: inlinehint uwtable
define internal nonnull i8* @"_ZN4core3ptr8non_null16NonNull$LT$T$GT$13new_unchecked17h41fc3ee18276955bE"(i8* %ptr) unnamed_addr #0 {
start:
  %0 = alloca i8*, align 8
  store i8* %ptr, i8** %0, align 8
  %1 = load i8*, i8** %0, align 8, !nonnull !2
  ret i8* %1
}

; core::ptr::non_null::NonNull<T>::new_unchecked
; Function Attrs: inlinehint uwtable
define internal { i64*, i64 } @"_ZN4core3ptr8non_null16NonNull$LT$T$GT$13new_unchecked17h5c3315256237ffe5E"([0 x %"alloc::string::String"]* %ptr.0, i64 %ptr.1) unnamed_addr #0 {
start:
  %0 = alloca { i64*, i64 }, align 8
  %1 = bitcast { i64*, i64 }* %0 to { [0 x %"alloc::string::String"]*, i64 }*
  %2 = getelementptr inbounds { [0 x %"alloc::string::String"]*, i64 }, { [0 x %"alloc::string::String"]*, i64 }* %1, i32 0, i32 0
  store [0 x %"alloc::string::String"]* %ptr.0, [0 x %"alloc::string::String"]** %2, align 8
  %3 = getelementptr inbounds { [0 x %"alloc::string::String"]*, i64 }, { [0 x %"alloc::string::String"]*, i64 }* %1, i32 0, i32 1
  store i64 %ptr.1, i64* %3, align 8
  %4 = getelementptr inbounds { i64*, i64 }, { i64*, i64 }* %0, i32 0, i32 0
  %5 = load i64*, i64** %4, align 8, !nonnull !2
  %6 = getelementptr inbounds { i64*, i64 }, { i64*, i64 }* %0, i32 0, i32 1
  %7 = load i64, i64* %6, align 8
  %8 = insertvalue { i64*, i64 } undef, i64* %5, 0
  %9 = insertvalue { i64*, i64 } %8, i64 %7, 1
  ret { i64*, i64 } %9
}

; core::ptr::non_null::NonNull<T>::new
; Function Attrs: inlinehint uwtable
define internal i8* @"_ZN4core3ptr8non_null16NonNull$LT$T$GT$3new17h3444f2212777ca1eE"(i8* %ptr) unnamed_addr #0 {
start:
  %0 = alloca i8*, align 8
; call core::ptr::mut_ptr::<impl *mut T>::is_null
  %_3 = call zeroext i1 @"_ZN4core3ptr7mut_ptr31_$LT$impl$u20$$BP$mut$u20$T$GT$7is_null17he4b385dc7f5f5fc3E"(i8* %ptr)
  br label %bb1

bb1:                                              ; preds = %start
  %_2 = xor i1 %_3, true
  br i1 %_2, label %bb3, label %bb2

bb2:                                              ; preds = %bb1
  %1 = bitcast i8** %0 to {}**
  store {}* null, {}** %1, align 8
  br label %bb5

bb3:                                              ; preds = %bb1
; call core::ptr::non_null::NonNull<T>::new_unchecked
  %_5 = call nonnull i8* @"_ZN4core3ptr8non_null16NonNull$LT$T$GT$13new_unchecked17h41fc3ee18276955bE"(i8* %ptr)
  br label %bb4

bb4:                                              ; preds = %bb3
  store i8* %_5, i8** %0, align 8
  br label %bb5

bb5:                                              ; preds = %bb2, %bb4
  %2 = load i8*, i8** %0, align 8
  ret i8* %2
}

; core::ptr::non_null::NonNull<T>::cast
; Function Attrs: inlinehint uwtable
define internal nonnull i8* @"_ZN4core3ptr8non_null16NonNull$LT$T$GT$4cast17ha9f1fded86f1c74bE"(i8* nonnull %self) unnamed_addr #0 {
start:
; call core::ptr::non_null::NonNull<T>::as_ptr
  %_3 = call i8* @"_ZN4core3ptr8non_null16NonNull$LT$T$GT$6as_ptr17h7aed512d2cafdabeE"(i8* nonnull %self)
  br label %bb1

bb1:                                              ; preds = %start
; call core::ptr::non_null::NonNull<T>::new_unchecked
  %0 = call nonnull i8* @"_ZN4core3ptr8non_null16NonNull$LT$T$GT$13new_unchecked17h41fc3ee18276955bE"(i8* %_3)
  br label %bb2

bb2:                                              ; preds = %bb1
  ret i8* %0
}

; core::ptr::non_null::NonNull<T>::as_ptr
; Function Attrs: inlinehint uwtable
define internal { [0 x %"alloc::string::String"]*, i64 } @"_ZN4core3ptr8non_null16NonNull$LT$T$GT$6as_ptr17h42fa4b12327a2eacE"(i64* nonnull %self.0, i64 %self.1) unnamed_addr #0 {
start:
  %_2.0 = bitcast i64* %self.0 to [0 x %"alloc::string::String"]*
  %0 = insertvalue { [0 x %"alloc::string::String"]*, i64 } undef, [0 x %"alloc::string::String"]* %_2.0, 0
  %1 = insertvalue { [0 x %"alloc::string::String"]*, i64 } %0, i64 %self.1, 1
  ret { [0 x %"alloc::string::String"]*, i64 } %1
}

; core::ptr::non_null::NonNull<T>::as_ptr
; Function Attrs: inlinehint uwtable
define internal %"alloc::string::String"* @"_ZN4core3ptr8non_null16NonNull$LT$T$GT$6as_ptr17h52af5e6d23b86851E"(i64* nonnull %self) unnamed_addr #0 {
start:
  %_2 = bitcast i64* %self to %"alloc::string::String"*
  ret %"alloc::string::String"* %_2
}

; core::ptr::non_null::NonNull<T>::as_ptr
; Function Attrs: inlinehint uwtable
define internal i8* @"_ZN4core3ptr8non_null16NonNull$LT$T$GT$6as_ptr17h7aed512d2cafdabeE"(i8* nonnull %self) unnamed_addr #0 {
start:
  ret i8* %self
}

; core::ptr::const_ptr::<impl *const T>::wrapping_add
; Function Attrs: inlinehint uwtable
define internal i8* @"_ZN4core3ptr9const_ptr33_$LT$impl$u20$$BP$const$u20$T$GT$12wrapping_add17hd95b929b27a61332E"(i8* %self, i64 %count) unnamed_addr #0 {
start:
; call core::ptr::const_ptr::<impl *const T>::wrapping_offset
  %0 = call i8* @"_ZN4core3ptr9const_ptr33_$LT$impl$u20$$BP$const$u20$T$GT$15wrapping_offset17hbe58475eba33c93fE"(i8* %self, i64 %count)
  br label %bb1

bb1:                                              ; preds = %start
  ret i8* %0
}

; core::ptr::const_ptr::<impl *const T>::wrapping_offset
; Function Attrs: inlinehint uwtable
define internal i8* @"_ZN4core3ptr9const_ptr33_$LT$impl$u20$$BP$const$u20$T$GT$15wrapping_offset17hbe58475eba33c93fE"(i8* %self, i64 %count) unnamed_addr #0 {
start:
  %0 = alloca i8*, align 8
  %1 = getelementptr i8, i8* %self, i64 %count
  store i8* %1, i8** %0, align 8
  %2 = load i8*, i8** %0, align 8
  br label %bb1

bb1:                                              ; preds = %start
  ret i8* %2
}

; core::ptr::const_ptr::<impl *const T>::add
; Function Attrs: inlinehint uwtable
define internal i8* @"_ZN4core3ptr9const_ptr33_$LT$impl$u20$$BP$const$u20$T$GT$3add17h064c2b4c07a8aa1dE"(i8* %self, i64 %count) unnamed_addr #0 {
start:
; call core::ptr::const_ptr::<impl *const T>::offset
  %0 = call i8* @"_ZN4core3ptr9const_ptr33_$LT$impl$u20$$BP$const$u20$T$GT$6offset17hae92ed9685030e06E"(i8* %self, i64 %count)
  br label %bb1

bb1:                                              ; preds = %start
  ret i8* %0
}

; core::ptr::const_ptr::<impl *const T>::add
; Function Attrs: inlinehint uwtable
define internal %"alloc::string::String"* @"_ZN4core3ptr9const_ptr33_$LT$impl$u20$$BP$const$u20$T$GT$3add17h83175e61ebc61687E"(%"alloc::string::String"* %self, i64 %count) unnamed_addr #0 {
start:
; call core::ptr::const_ptr::<impl *const T>::offset
  %0 = call %"alloc::string::String"* @"_ZN4core3ptr9const_ptr33_$LT$impl$u20$$BP$const$u20$T$GT$6offset17ha7bab992de26d870E"(%"alloc::string::String"* %self, i64 %count)
  br label %bb1

bb1:                                              ; preds = %start
  ret %"alloc::string::String"* %0
}

; core::ptr::const_ptr::<impl *const T>::offset
; Function Attrs: inlinehint uwtable
define internal %"alloc::string::String"* @"_ZN4core3ptr9const_ptr33_$LT$impl$u20$$BP$const$u20$T$GT$6offset17ha7bab992de26d870E"(%"alloc::string::String"* %self, i64 %count) unnamed_addr #0 {
start:
  %0 = alloca %"alloc::string::String"*, align 8
  %1 = getelementptr inbounds %"alloc::string::String", %"alloc::string::String"* %self, i64 %count
  store %"alloc::string::String"* %1, %"alloc::string::String"** %0, align 8
  %2 = load %"alloc::string::String"*, %"alloc::string::String"** %0, align 8
  br label %bb1

bb1:                                              ; preds = %start
  ret %"alloc::string::String"* %2
}

; core::ptr::const_ptr::<impl *const T>::offset
; Function Attrs: inlinehint uwtable
define internal i8* @"_ZN4core3ptr9const_ptr33_$LT$impl$u20$$BP$const$u20$T$GT$6offset17hae92ed9685030e06E"(i8* %self, i64 %count) unnamed_addr #0 {
start:
  %0 = alloca i8*, align 8
  %1 = getelementptr inbounds i8, i8* %self, i64 %count
  store i8* %1, i8** %0, align 8
  %2 = load i8*, i8** %0, align 8
  br label %bb1

bb1:                                              ; preds = %start
  ret i8* %2
}

; core::ptr::const_ptr::<impl *const T>::is_null
; Function Attrs: inlinehint uwtable
define internal zeroext i1 @"_ZN4core3ptr9const_ptr33_$LT$impl$u20$$BP$const$u20$T$GT$7is_null17hc9b6b6e9979218deE"(%"alloc::string::String"* %self) unnamed_addr #0 {
start:
  %_2 = bitcast %"alloc::string::String"* %self to i8*
  br label %bb1

bb1:                                              ; preds = %start
  %0 = icmp eq i8* %_2, null
  ret i1 %0
}

; core::ptr::const_ptr::<impl *const T>::is_null
; Function Attrs: inlinehint uwtable
define internal zeroext i1 @"_ZN4core3ptr9const_ptr33_$LT$impl$u20$$BP$const$u20$T$GT$7is_null17hd4de86c6c3b1d4f9E"(i8* %self) unnamed_addr #0 {
start:
  br label %bb1

bb1:                                              ; preds = %start
  %0 = icmp eq i8* %self, null
  ret i1 %0
}

; core::str::from_utf8_unchecked
; Function Attrs: inlinehint uwtable
define internal { [0 x i8]*, i64 } @_ZN4core3str19from_utf8_unchecked17h4db3c2a367690b11E([0 x i8]* noalias nonnull readonly align 1 %v.0, i64 %v.1) unnamed_addr #0 {
start:
  %0 = insertvalue { [0 x i8]*, i64 } undef, [0 x i8]* %v.0, 0
  %1 = insertvalue { [0 x i8]*, i64 } %0, i64 %v.1, 1
  ret { [0 x i8]*, i64 } %1
}

; core::str::<impl core::convert::AsRef<[u8]> for str>::as_ref
; Function Attrs: inlinehint uwtable
define internal { [0 x i8]*, i64 } @"_ZN4core3str74_$LT$impl$u20$core..convert..AsRef$LT$$u5b$u8$u5d$$GT$$u20$for$u20$str$GT$6as_ref17h003ca99e7909b06cE"([0 x i8]* noalias nonnull readonly align 1 %self.0, i64 %self.1) unnamed_addr #0 {
start:
  %_2.i = alloca %"core::str::{{impl}}::as_bytes::Slices", align 8
  %0 = bitcast %"core::str::{{impl}}::as_bytes::Slices"* %_2.i to { [0 x i8]*, i64 }*
  %1 = getelementptr inbounds { [0 x i8]*, i64 }, { [0 x i8]*, i64 }* %0, i32 0, i32 0
  store [0 x i8]* %self.0, [0 x i8]** %1, align 8, !noalias !7
  %2 = getelementptr inbounds { [0 x i8]*, i64 }, { [0 x i8]*, i64 }* %0, i32 0, i32 1
  store i64 %self.1, i64* %2, align 8, !noalias !7
  %3 = bitcast %"core::str::{{impl}}::as_bytes::Slices"* %_2.i to { [0 x i8]*, i64 }*
  %4 = getelementptr inbounds { [0 x i8]*, i64 }, { [0 x i8]*, i64 }* %3, i32 0, i32 0
  %5 = load [0 x i8]*, [0 x i8]** %4, align 8, !noalias !7, !nonnull !2
  %6 = getelementptr inbounds { [0 x i8]*, i64 }, { [0 x i8]*, i64 }* %3, i32 0, i32 1
  %7 = load i64, i64* %6, align 8, !noalias !7
  %8 = insertvalue { [0 x i8]*, i64 } undef, [0 x i8]* %5, 0
  %9 = insertvalue { [0 x i8]*, i64 } %8, i64 %7, 1
  %_2.0 = extractvalue { [0 x i8]*, i64 } %9, 0
  %_2.1 = extractvalue { [0 x i8]*, i64 } %9, 1
  br label %bb1

bb1:                                              ; preds = %start
  %10 = insertvalue { [0 x i8]*, i64 } undef, [0 x i8]* %_2.0, 0
  %11 = insertvalue { [0 x i8]*, i64 } %10, i64 %_2.1, 1
  ret { [0 x i8]*, i64 } %11
}

; core::iter::traits::iterator::Iterator::map
; Function Attrs: inlinehint uwtable
define internal { i64*, i64* } @_ZN4core4iter6traits8iterator8Iterator3map17hc26841582aea5c4bE(i64* nonnull %self.0, i64* %self.1) unnamed_addr #0 {
start:
; call core::iter::adapters::Map<I,F>::new
  %0 = call { i64*, i64* } @"_ZN4core4iter8adapters16Map$LT$I$C$F$GT$3new17h9390e005d6eac883E"(i64* nonnull %self.0, i64* %self.1)
  %1 = extractvalue { i64*, i64* } %0, 0
  %2 = extractvalue { i64*, i64* } %0, 1
  br label %bb1

bb1:                                              ; preds = %start
  %3 = insertvalue { i64*, i64* } undef, i64* %1, 0
  %4 = insertvalue { i64*, i64* } %3, i64* %2, 1
  ret { i64*, i64* } %4
}

; core::iter::traits::iterator::Iterator::try_fold
; Function Attrs: inlinehint uwtable
define internal { i64, i64 } @_ZN4core4iter6traits8iterator8Iterator8try_fold17hbd25660756942fc6E({ i64*, i64* }* align 8 dereferenceable(16) %self, i64 %init, i8* nonnull align 1) unnamed_addr #0 personality i32 (i32, i32, i64, %"unwind::libunwind::_Unwind_Exception"*, %"unwind::libunwind::_Unwind_Context"*)* @rust_eh_personality {
start:
  %1 = alloca { i8*, i32 }, align 8
  %_22 = alloca i8, align 1
  %_13 = alloca { i64, i64* }, align 8
  %_10 = alloca { i64, i64 }, align 8
  %_5 = alloca i64*, align 8
  %accum = alloca i64, align 8
  %2 = alloca { i64, i64 }, align 8
  %f = alloca i8*, align 8
  store i8* %0, i8** %f, align 8
  store i8 0, i8* %_22, align 1
  store i8 1, i8* %_22, align 1
  store i64 %init, i64* %accum, align 8
  br label %bb1

bb1:                                              ; preds = %bb10, %start
; invoke <core::slice::Iter<T> as core::iter::traits::iterator::Iterator>::next
  %3 = invoke align 8 dereferenceable_or_null(24) i64* @"_ZN85_$LT$core..slice..Iter$LT$T$GT$$u20$as$u20$core..iter..traits..iterator..Iterator$GT$4next17heca6c415c47948eaE"({ i64*, i64* }* align 8 dereferenceable(16) %self)
          to label %bb4 unwind label %cleanup

bb2:                                              ; preds = %bb3
  %4 = bitcast { i8*, i32 }* %1 to i8**
  %5 = load i8*, i8** %4, align 8
  %6 = getelementptr inbounds { i8*, i32 }, { i8*, i32 }* %1, i32 0, i32 1
  %7 = load i32, i32* %6, align 8
  %8 = insertvalue { i8*, i32 } undef, i8* %5, 0
  %9 = insertvalue { i8*, i32 } %8, i32 %7, 1
  resume { i8*, i32 } %9

bb3:                                              ; preds = %bb18, %bb19
  br label %bb2

bb4:                                              ; preds = %bb1
  store i64* %3, i64** %_5, align 8
  %10 = bitcast i64** %_5 to {}**
  %11 = load {}*, {}** %10, align 8
  %12 = icmp ule {}* %11, null
  %_7 = select i1 %12, i64 0, i64 1
  %13 = icmp eq i64 %_7, 1
  br i1 %13, label %bb6, label %bb5

bb5:                                              ; preds = %bb4
  br label %bb16

bb6:                                              ; preds = %bb4
  %14 = bitcast i64** %_5 to %"alloc::string::String"**
  %x = load %"alloc::string::String"*, %"alloc::string::String"** %14, align 8, !nonnull !2
  store i8 0, i8* %_22, align 1
  %_14 = load i64, i64* %accum, align 8
  %15 = bitcast { i64, i64* }* %_13 to i64*
  store i64 %_14, i64* %15, align 8
  %16 = getelementptr inbounds { i64, i64* }, { i64, i64* }* %_13, i32 0, i32 1
  %17 = bitcast i64** %16 to %"alloc::string::String"**
  store %"alloc::string::String"* %x, %"alloc::string::String"** %17, align 8
  %18 = getelementptr inbounds { i64, i64* }, { i64, i64* }* %_13, i32 0, i32 0
  %19 = load i64, i64* %18, align 8
  %20 = getelementptr inbounds { i64, i64* }, { i64, i64* }* %_13, i32 0, i32 1
  %21 = load i64*, i64** %20, align 8, !nonnull !2
  %22 = bitcast i64* %21 to %"alloc::string::String"*
; invoke core::iter::adapters::map_try_fold::{{closure}}
  %23 = invoke { i64, i64 } @"_ZN4core4iter8adapters12map_try_fold28_$u7b$$u7b$closure$u7d$$u7d$17h92e9747b79190763E"(i8** align 8 dereferenceable(8) %f, i64 %19, %"alloc::string::String"* noalias readonly align 8 dereferenceable(24) %22)
          to label %bb7 unwind label %cleanup1

bb7:                                              ; preds = %bb6
  %_11.0 = extractvalue { i64, i64 } %23, 0
  %_11.1 = extractvalue { i64, i64 } %23, 1
; invoke <core::option::Option<T> as core::ops::try::Try>::into_result
  %24 = invoke { i64, i64 } @"_ZN69_$LT$core..option..Option$LT$T$GT$$u20$as$u20$core..ops..try..Try$GT$11into_result17hcd48385b25341392E"(i64 %_11.0, i64 %_11.1)
          to label %bb8 unwind label %cleanup1

bb8:                                              ; preds = %bb7
  store { i64, i64 } %24, { i64, i64 }* %_10, align 8
  %25 = bitcast { i64, i64 }* %_10 to i64*
  %_16 = load i64, i64* %25, align 8, !range !6
  switch i64 %_16, label %bb11 [
    i64 0, label %bb10
    i64 1, label %bb12
  ]

bb9:                                              ; preds = %cleanup2
  br label %bb20

bb10:                                             ; preds = %bb8
  %26 = bitcast { i64, i64 }* %_10 to %"core::result::Result<usize, core::option::NoneError>::Ok"*
  %27 = getelementptr inbounds %"core::result::Result<usize, core::option::NoneError>::Ok", %"core::result::Result<usize, core::option::NoneError>::Ok"* %26, i32 0, i32 1
  %val = load i64, i64* %27, align 8
  store i8 1, i8* %_22, align 1
  store i64 %val, i64* %accum, align 8
  br label %bb1

bb11:                                             ; preds = %bb8
  unreachable

bb12:                                             ; preds = %bb8
; invoke <T as core::convert::From<T>>::from
  invoke void @"_ZN50_$LT$T$u20$as$u20$core..convert..From$LT$T$GT$$GT$4from17hc7b5f579648ec232E"()
          to label %bb14 unwind label %cleanup2

bb13:                                             ; preds = %bb15, %bb17
  %28 = getelementptr inbounds { i64, i64 }, { i64, i64 }* %2, i32 0, i32 0
  %29 = load i64, i64* %28, align 8, !range !6
  %30 = getelementptr inbounds { i64, i64 }, { i64, i64 }* %2, i32 0, i32 1
  %31 = load i64, i64* %30, align 8
  %32 = insertvalue { i64, i64 } undef, i64 %29, 0
  %33 = insertvalue { i64, i64 } %32, i64 %31, 1
  ret { i64, i64 } %33

bb14:                                             ; preds = %bb12
; invoke <core::option::Option<T> as core::ops::try::Try>::from_error
  %34 = invoke { i64, i64 } @"_ZN69_$LT$core..option..Option$LT$T$GT$$u20$as$u20$core..ops..try..Try$GT$10from_error17ha3d30aaf37ca62b8E"()
          to label %bb15 unwind label %cleanup2

bb15:                                             ; preds = %bb14
  store { i64, i64 } %34, { i64, i64 }* %2, align 8
  store i8 0, i8* %_22, align 1
  br label %bb13

bb16:                                             ; preds = %bb5
  store i8 0, i8* %_22, align 1
  %_21 = load i64, i64* %accum, align 8
; invoke <core::option::Option<T> as core::ops::try::Try>::from_ok
  %35 = invoke { i64, i64 } @"_ZN69_$LT$core..option..Option$LT$T$GT$$u20$as$u20$core..ops..try..Try$GT$7from_ok17h9b4264b72010928cE"(i64 %_21)
          to label %bb17 unwind label %cleanup

bb17:                                             ; preds = %bb16
  store { i64, i64 } %35, { i64, i64 }* %2, align 8
  store i8 0, i8* %_22, align 1
  br label %bb13

bb18:                                             ; preds = %bb19
  store i8 0, i8* %_22, align 1
  br label %bb3

bb19:                                             ; preds = %bb20, %cleanup
  %36 = load i8, i8* %_22, align 1, !range !4
  %37 = trunc i8 %36 to i1
  br i1 %37, label %bb18, label %bb3

bb20:                                             ; preds = %bb9, %cleanup1
  br label %bb19

cleanup:                                          ; preds = %bb16, %bb1
  %38 = landingpad { i8*, i32 }
          cleanup
  %39 = extractvalue { i8*, i32 } %38, 0
  %40 = extractvalue { i8*, i32 } %38, 1
  %41 = getelementptr inbounds { i8*, i32 }, { i8*, i32 }* %1, i32 0, i32 0
  store i8* %39, i8** %41, align 8
  %42 = getelementptr inbounds { i8*, i32 }, { i8*, i32 }* %1, i32 0, i32 1
  store i32 %40, i32* %42, align 8
  br label %bb19

cleanup1:                                         ; preds = %bb7, %bb6
  %43 = landingpad { i8*, i32 }
          cleanup
  %44 = extractvalue { i8*, i32 } %43, 0
  %45 = extractvalue { i8*, i32 } %43, 1
  %46 = getelementptr inbounds { i8*, i32 }, { i8*, i32 }* %1, i32 0, i32 0
  store i8* %44, i8** %46, align 8
  %47 = getelementptr inbounds { i8*, i32 }, { i8*, i32 }* %1, i32 0, i32 1
  store i32 %45, i32* %47, align 8
  br label %bb20

cleanup2:                                         ; preds = %bb14, %bb12
  %48 = landingpad { i8*, i32 }
          cleanup
  %49 = extractvalue { i8*, i32 } %48, 0
  %50 = extractvalue { i8*, i32 } %48, 1
  %51 = getelementptr inbounds { i8*, i32 }, { i8*, i32 }* %1, i32 0, i32 0
  store i8* %49, i8** %51, align 8
  %52 = getelementptr inbounds { i8*, i32 }, { i8*, i32 }* %1, i32 0, i32 1
  store i32 %50, i32* %52, align 8
  br label %bb9
}

; core::iter::adapters::map_try_fold
; Function Attrs: uwtable
define internal nonnull align 1 i8* @_ZN4core4iter8adapters12map_try_fold17h7ad76e8d38d88decE(%"alloc::str::join_generic_copy::{{closure}}::{{closure}}<str, u8, alloc::string::String>"* nonnull align 1 %f) unnamed_addr #1 {
start:
  %0 = alloca i8*, align 8
  %1 = bitcast i8** %0 to {}*
  %2 = bitcast i8** %0 to %"alloc::str::join_generic_copy::{{closure}}::{{closure}}<str, u8, alloc::string::String>"**
  store %"alloc::str::join_generic_copy::{{closure}}::{{closure}}<str, u8, alloc::string::String>"* %f, %"alloc::str::join_generic_copy::{{closure}}::{{closure}}<str, u8, alloc::string::String>"** %2, align 8
  %3 = load i8*, i8** %0, align 8, !nonnull !2
  ret i8* %3
}

; core::iter::adapters::map_try_fold::{{closure}}
; Function Attrs: uwtable
define internal { i64, i64 } @"_ZN4core4iter8adapters12map_try_fold28_$u7b$$u7b$closure$u7d$$u7d$17h92e9747b79190763E"(i8** align 8 dereferenceable(8) %_1, i64 %acc, %"alloc::string::String"* noalias readonly align 8 dereferenceable(24) %elt) unnamed_addr #1 personality i32 (i32, i32, i64, %"unwind::libunwind::_Unwind_Exception"*, %"unwind::libunwind::_Unwind_Context"*)* @rust_eh_personality {
start:
  %0 = alloca { i8*, i32 }, align 8
  %_11 = alloca i8, align 1
  %_9 = alloca i64*, align 8
  %_5 = alloca { i64, i64 }, align 8
  store i8 0, i8* %_11, align 1
  %_4 = bitcast i8** %_1 to {}*
  store i8 1, i8* %_11, align 1
  %1 = bitcast i8** %_1 to %"alloc::str::join_generic_copy::{{closure}}::{{closure}}<str, u8, alloc::string::String>"**
  %_8 = load %"alloc::str::join_generic_copy::{{closure}}::{{closure}}<str, u8, alloc::string::String>"*, %"alloc::str::join_generic_copy::{{closure}}::{{closure}}<str, u8, alloc::string::String>"** %1, align 8, !nonnull !2
  %2 = bitcast i64** %_9 to %"alloc::string::String"**
  store %"alloc::string::String"* %elt, %"alloc::string::String"** %2, align 8
  %3 = load i64*, i64** %_9, align 8, !nonnull !2
  %4 = bitcast i64* %3 to %"alloc::string::String"*
; invoke alloc::str::join_generic_copy::{{closure}}::{{closure}}
  %_7 = invoke i64 @"_ZN5alloc3str17join_generic_copy28_$u7b$$u7b$closure$u7d$$u7d$28_$u7b$$u7b$closure$u7d$$u7d$17h36c319d89b6e0ff5E"(%"alloc::str::join_generic_copy::{{closure}}::{{closure}}<str, u8, alloc::string::String>"* nonnull align 1 %_8, %"alloc::string::String"* noalias readonly align 8 dereferenceable(24) %4)
          to label %bb2 unwind label %cleanup

bb1:                                              ; preds = %bb4, %bb5
  %5 = bitcast { i8*, i32 }* %0 to i8**
  %6 = load i8*, i8** %5, align 8
  %7 = getelementptr inbounds { i8*, i32 }, { i8*, i32 }* %0, i32 0, i32 1
  %8 = load i32, i32* %7, align 8
  %9 = insertvalue { i8*, i32 } undef, i8* %6, 0
  %10 = insertvalue { i8*, i32 } %9, i32 %8, 1
  resume { i8*, i32 } %10

bb2:                                              ; preds = %start
  store i8 0, i8* %_11, align 1
  %11 = bitcast { i64, i64 }* %_5 to i64*
  store i64 %acc, i64* %11, align 8
  %12 = getelementptr inbounds { i64, i64 }, { i64, i64 }* %_5, i32 0, i32 1
  store i64 %_7, i64* %12, align 8
  %13 = getelementptr inbounds { i64, i64 }, { i64, i64 }* %_5, i32 0, i32 0
  %14 = load i64, i64* %13, align 8
  %15 = getelementptr inbounds { i64, i64 }, { i64, i64 }* %_5, i32 0, i32 1
  %16 = load i64, i64* %15, align 8
; invoke core::ops::function::FnMut::call_mut
  %17 = invoke { i64, i64 } @_ZN4core3ops8function5FnMut8call_mut17hbdfe01a1a63d3da5E({}* nonnull align 1 %_4, i64 %14, i64 %16)
          to label %bb3 unwind label %cleanup

bb3:                                              ; preds = %bb2
  %18 = extractvalue { i64, i64 } %17, 0
  %19 = extractvalue { i64, i64 } %17, 1
  store i8 0, i8* %_11, align 1
  %20 = insertvalue { i64, i64 } undef, i64 %18, 0
  %21 = insertvalue { i64, i64 } %20, i64 %19, 1
  ret { i64, i64 } %21

bb4:                                              ; preds = %bb5
  store i8 0, i8* %_11, align 1
  br label %bb1

bb5:                                              ; preds = %cleanup
  %22 = load i8, i8* %_11, align 1, !range !4
  %23 = trunc i8 %22 to i1
  br i1 %23, label %bb4, label %bb1

cleanup:                                          ; preds = %bb2, %start
  %24 = landingpad { i8*, i32 }
          cleanup
  %25 = extractvalue { i8*, i32 } %24, 0
  %26 = extractvalue { i8*, i32 } %24, 1
  %27 = getelementptr inbounds { i8*, i32 }, { i8*, i32 }* %0, i32 0, i32 0
  store i8* %25, i8** %27, align 8
  %28 = getelementptr inbounds { i8*, i32 }, { i8*, i32 }* %0, i32 0, i32 1
  store i32 %26, i32* %28, align 8
  br label %bb5
}

; core::iter::adapters::Map<I,F>::new
; Function Attrs: uwtable
define internal { i64*, i64* } @"_ZN4core4iter8adapters16Map$LT$I$C$F$GT$3new17h9390e005d6eac883E"(i64* nonnull %iter.0, i64* %iter.1) unnamed_addr #1 {
start:
  %0 = alloca { i64*, i64* }, align 8
  %1 = getelementptr inbounds { i64*, i64* }, { i64*, i64* }* %0, i32 0, i32 0
  store i64* %iter.0, i64** %1, align 8
  %2 = getelementptr inbounds { i64*, i64* }, { i64*, i64* }* %0, i32 0, i32 1
  store i64* %iter.1, i64** %2, align 8
  %3 = bitcast { i64*, i64* }* %0 to %"alloc::str::join_generic_copy::{{closure}}::{{closure}}<str, u8, alloc::string::String>"*
  %4 = getelementptr inbounds { i64*, i64* }, { i64*, i64* }* %0, i32 0, i32 0
  %5 = load i64*, i64** %4, align 8, !nonnull !2
  %6 = getelementptr inbounds { i64*, i64* }, { i64*, i64* }* %0, i32 0, i32 1
  %7 = load i64*, i64** %6, align 8
  %8 = insertvalue { i64*, i64* } undef, i64* %5, 0
  %9 = insertvalue { i64*, i64* } %8, i64* %7, 1
  ret { i64*, i64* } %9
}

; core::alloc::layout::size_align
; Function Attrs: uwtable
define internal { i64, i64 } @_ZN4core5alloc6layout10size_align17hb23444a878fd0d46E() unnamed_addr #1 {
start:
  %0 = alloca i64, align 8
  %1 = alloca i64, align 8
  %2 = alloca { i64, i64 }, align 8
  store i64 1, i64* %1, align 8
  %3 = load i64, i64* %1, align 8
  br label %bb1

bb1:                                              ; preds = %start
  store i64 1, i64* %0, align 8
  %4 = load i64, i64* %0, align 8
  br label %bb2

bb2:                                              ; preds = %bb1
  %5 = bitcast { i64, i64 }* %2 to i64*
  store i64 %3, i64* %5, align 8
  %6 = getelementptr inbounds { i64, i64 }, { i64, i64 }* %2, i32 0, i32 1
  store i64 %4, i64* %6, align 8
  %7 = getelementptr inbounds { i64, i64 }, { i64, i64 }* %2, i32 0, i32 0
  %8 = load i64, i64* %7, align 8
  %9 = getelementptr inbounds { i64, i64 }, { i64, i64 }* %2, i32 0, i32 1
  %10 = load i64, i64* %9, align 8
  %11 = insertvalue { i64, i64 } undef, i64 %8, 0
  %12 = insertvalue { i64, i64 } %11, i64 %10, 1
  ret { i64, i64 } %12
}

; core::alloc::layout::Layout::pad_to_align
; Function Attrs: inlinehint uwtable
define internal { i64, i64 } @_ZN4core5alloc6layout6Layout12pad_to_align17hafe30aadc3a23aeeE({ i64, i64 }* noalias readonly align 8 dereferenceable(16) %self) unnamed_addr #0 {
start:
; call core::alloc::layout::Layout::align
  %_4 = call i64 @_ZN4core5alloc6layout6Layout5align17hcae6aab17c1029b1E({ i64, i64 }* noalias readonly align 8 dereferenceable(16) %self)
  br label %bb1

bb1:                                              ; preds = %start
; call core::alloc::layout::Layout::padding_needed_for
  %pad = call i64 @_ZN4core5alloc6layout6Layout18padding_needed_for17h6441f0c55e64d4e4E({ i64, i64 }* noalias readonly align 8 dereferenceable(16) %self, i64 %_4)
  br label %bb2

bb2:                                              ; preds = %bb1
; call core::alloc::layout::Layout::size
  %_7 = call i64 @_ZN4core5alloc6layout6Layout4size17hbdac7274e3f9b2e7E({ i64, i64 }* noalias readonly align 8 dereferenceable(16) %self)
  br label %bb3

bb3:                                              ; preds = %bb2
  %new_size = add i64 %_7, %pad
; call core::alloc::layout::Layout::align
  %_12 = call i64 @_ZN4core5alloc6layout6Layout5align17hcae6aab17c1029b1E({ i64, i64 }* noalias readonly align 8 dereferenceable(16) %self)
  br label %bb4

bb4:                                              ; preds = %bb3
; call core::alloc::layout::Layout::from_size_align
  %0 = call { i64, i64 } @_ZN4core5alloc6layout6Layout15from_size_align17hc6316fe1c6df1fbbE(i64 %new_size, i64 %_12)
  %_10.0 = extractvalue { i64, i64 } %0, 0
  %_10.1 = extractvalue { i64, i64 } %0, 1
  br label %bb5

bb5:                                              ; preds = %bb4
; call core::result::Result<T,E>::unwrap
  %1 = call { i64, i64 } @"_ZN4core6result19Result$LT$T$C$E$GT$6unwrap17h9b28b11f39c5ffbeE"(i64 %_10.0, i64 %_10.1, %"core::panic::Location"* noalias readonly align 8 dereferenceable(24) bitcast (<{ i8*, [16 x i8] }>* @alloc57 to %"core::panic::Location"*))
  %2 = extractvalue { i64, i64 } %1, 0
  %3 = extractvalue { i64, i64 } %1, 1
  br label %bb6

bb6:                                              ; preds = %bb5
  %4 = insertvalue { i64, i64 } undef, i64 %2, 0
  %5 = insertvalue { i64, i64 } %4, i64 %3, 1
  ret { i64, i64 } %5
}

; core::alloc::layout::Layout::from_size_align
; Function Attrs: inlinehint uwtable
define internal { i64, i64 } @_ZN4core5alloc6layout6Layout15from_size_align17hc6316fe1c6df1fbbE(i64 %size, i64 %align) unnamed_addr #0 {
start:
  %0 = alloca { i64, i64 }, align 8
; call core::num::<impl usize>::is_power_of_two
  %_4 = call zeroext i1 @"_ZN4core3num23_$LT$impl$u20$usize$GT$15is_power_of_two17hfb70125818f7960fE"(i64 %align)
  br label %bb1

bb1:                                              ; preds = %start
  %_3 = xor i1 %_4, true
  br i1 %_3, label %bb3, label %bb2

bb2:                                              ; preds = %bb1
  %_10 = sub i64 %align, 1
  %_9 = sub i64 -1, %_10
  %_7 = icmp ugt i64 %size, %_9
  br i1 %_7, label %bb6, label %bb5

bb3:                                              ; preds = %bb1
  %1 = bitcast { i64, i64 }* %0 to %"core::result::Result<core::alloc::layout::Layout, core::alloc::layout::LayoutErr>::Err"*
  %2 = bitcast %"core::result::Result<core::alloc::layout::Layout, core::alloc::layout::LayoutErr>::Err"* %1 to %"core::alloc::layout::LayoutErr"*
  %3 = getelementptr inbounds { i64, i64 }, { i64, i64 }* %0, i32 0, i32 1
  store i64 0, i64* %3, align 8
  br label %bb4

bb4:                                              ; preds = %bb7, %bb6, %bb3
  %4 = getelementptr inbounds { i64, i64 }, { i64, i64 }* %0, i32 0, i32 0
  %5 = load i64, i64* %4, align 8
  %6 = getelementptr inbounds { i64, i64 }, { i64, i64 }* %0, i32 0, i32 1
  %7 = load i64, i64* %6, align 8
  %8 = insertvalue { i64, i64 } undef, i64 %5, 0
  %9 = insertvalue { i64, i64 } %8, i64 %7, 1
  ret { i64, i64 } %9

bb5:                                              ; preds = %bb2
; call core::alloc::layout::Layout::from_size_align_unchecked
  %10 = call { i64, i64 } @_ZN4core5alloc6layout6Layout25from_size_align_unchecked17he7ab51f0c26ed189E(i64 %size, i64 %align)
  %_13.0 = extractvalue { i64, i64 } %10, 0
  %_13.1 = extractvalue { i64, i64 } %10, 1
  br label %bb7

bb6:                                              ; preds = %bb2
  %11 = bitcast { i64, i64 }* %0 to %"core::result::Result<core::alloc::layout::Layout, core::alloc::layout::LayoutErr>::Err"*
  %12 = bitcast %"core::result::Result<core::alloc::layout::Layout, core::alloc::layout::LayoutErr>::Err"* %11 to %"core::alloc::layout::LayoutErr"*
  %13 = getelementptr inbounds { i64, i64 }, { i64, i64 }* %0, i32 0, i32 1
  store i64 0, i64* %13, align 8
  br label %bb4

bb7:                                              ; preds = %bb5
  %14 = getelementptr inbounds { i64, i64 }, { i64, i64 }* %0, i32 0, i32 0
  store i64 %_13.0, i64* %14, align 8
  %15 = getelementptr inbounds { i64, i64 }, { i64, i64 }* %0, i32 0, i32 1
  store i64 %_13.1, i64* %15, align 8
  br label %bb4
}

; core::alloc::layout::Layout::padding_needed_for
; Function Attrs: inlinehint uwtable
define internal i64 @_ZN4core5alloc6layout6Layout18padding_needed_for17h6441f0c55e64d4e4E({ i64, i64 }* noalias readonly align 8 dereferenceable(16) %self, i64 %align) unnamed_addr #0 {
start:
; call core::alloc::layout::Layout::size
  %len = call i64 @_ZN4core5alloc6layout6Layout4size17hbdac7274e3f9b2e7E({ i64, i64 }* noalias readonly align 8 dereferenceable(16) %self)
  br label %bb1

bb1:                                              ; preds = %start
; call core::num::<impl usize>::wrapping_add
  %_7 = call i64 @"_ZN4core3num23_$LT$impl$u20$usize$GT$12wrapping_add17h2f29ec33a237bce1E"(i64 %len, i64 %align)
  br label %bb2

bb2:                                              ; preds = %bb1
; call core::num::<impl usize>::wrapping_sub
  %_6 = call i64 @"_ZN4core3num23_$LT$impl$u20$usize$GT$12wrapping_sub17h283a835cc3a04a13E"(i64 %_7, i64 1)
  br label %bb3

bb3:                                              ; preds = %bb2
; call core::num::<impl usize>::wrapping_sub
  %_11 = call i64 @"_ZN4core3num23_$LT$impl$u20$usize$GT$12wrapping_sub17h283a835cc3a04a13E"(i64 %align, i64 1)
  br label %bb4

bb4:                                              ; preds = %bb3
  %_10 = xor i64 %_11, -1
  %len_rounded_up = and i64 %_6, %_10
; call core::num::<impl usize>::wrapping_sub
  %0 = call i64 @"_ZN4core3num23_$LT$impl$u20$usize$GT$12wrapping_sub17h283a835cc3a04a13E"(i64 %len_rounded_up, i64 %len)
  br label %bb5

bb5:                                              ; preds = %bb4
  ret i64 %0
}

; core::alloc::layout::Layout::from_size_align_unchecked
; Function Attrs: inlinehint uwtable
define internal { i64, i64 } @_ZN4core5alloc6layout6Layout25from_size_align_unchecked17he7ab51f0c26ed189E(i64 %size, i64 %align) unnamed_addr #0 {
start:
  %0 = alloca { i64, i64 }, align 8
; call core::num::NonZeroUsize::new_unchecked
  %_4 = call i64 @_ZN4core3num12NonZeroUsize13new_unchecked17h4f2cbadab45af4feE(i64 %align), !range !5
  br label %bb1

bb1:                                              ; preds = %start
  %1 = bitcast { i64, i64 }* %0 to i64*
  store i64 %size, i64* %1, align 8
  %2 = getelementptr inbounds { i64, i64 }, { i64, i64 }* %0, i32 0, i32 1
  store i64 %_4, i64* %2, align 8
  %3 = getelementptr inbounds { i64, i64 }, { i64, i64 }* %0, i32 0, i32 0
  %4 = load i64, i64* %3, align 8
  %5 = getelementptr inbounds { i64, i64 }, { i64, i64 }* %0, i32 0, i32 1
  %6 = load i64, i64* %5, align 8, !range !5
  %7 = insertvalue { i64, i64 } undef, i64 %4, 0
  %8 = insertvalue { i64, i64 } %7, i64 %6, 1
  ret { i64, i64 } %8
}

; core::alloc::layout::Layout::new
; Function Attrs: inlinehint uwtable
define internal { i64, i64 } @_ZN4core5alloc6layout6Layout3new17h15ff16a17c007db0E() unnamed_addr #0 {
start:
; call core::alloc::layout::size_align
  %0 = call { i64, i64 } @_ZN4core5alloc6layout10size_align17hb23444a878fd0d46E()
  %_3.0 = extractvalue { i64, i64 } %0, 0
  %_3.1 = extractvalue { i64, i64 } %0, 1
  br label %bb1

bb1:                                              ; preds = %start
; call core::alloc::layout::Layout::from_size_align_unchecked
  %1 = call { i64, i64 } @_ZN4core5alloc6layout6Layout25from_size_align_unchecked17he7ab51f0c26ed189E(i64 %_3.0, i64 %_3.1)
  %2 = extractvalue { i64, i64 } %1, 0
  %3 = extractvalue { i64, i64 } %1, 1
  br label %bb2

bb2:                                              ; preds = %bb1
  %4 = insertvalue { i64, i64 } undef, i64 %2, 0
  %5 = insertvalue { i64, i64 } %4, i64 %3, 1
  ret { i64, i64 } %5
}

; core::alloc::layout::Layout::size
; Function Attrs: inlinehint uwtable
define internal i64 @_ZN4core5alloc6layout6Layout4size17hbdac7274e3f9b2e7E({ i64, i64 }* noalias readonly align 8 dereferenceable(16) %self) unnamed_addr #0 {
start:
  %0 = bitcast { i64, i64 }* %self to i64*
  %1 = load i64, i64* %0, align 8
  ret i64 %1
}

; core::alloc::layout::Layout::align
; Function Attrs: inlinehint uwtable
define internal i64 @_ZN4core5alloc6layout6Layout5align17hcae6aab17c1029b1E({ i64, i64 }* noalias readonly align 8 dereferenceable(16) %self) unnamed_addr #0 {
start:
  %0 = getelementptr inbounds { i64, i64 }, { i64, i64 }* %self, i32 0, i32 1
  %_2 = load i64, i64* %0, align 8, !range !5
; call core::num::NonZeroUsize::get
  %1 = call i64 @_ZN4core3num12NonZeroUsize3get17hf66e36b0c1dbf4f8E(i64 %_2)
  br label %bb1

bb1:                                              ; preds = %start
  ret i64 %1
}

; core::alloc::layout::Layout::array
; Function Attrs: inlinehint uwtable
define internal { i64, i64 } @_ZN4core5alloc6layout6Layout5array17h67224e58ad5b09baE(i64 %n) unnamed_addr #0 {
start:
  %val = alloca { [0 x i64], { i64, i64 }, [0 x i64], i64, [0 x i64] }, align 8
  %_8 = alloca { i64, i64 }, align 8
  %_6 = alloca %"core::result::Result<(core::alloc::layout::Layout, usize), core::alloc::layout::LayoutErr>", align 8
  %_5 = alloca %"core::result::Result<(core::alloc::layout::Layout, usize), core::alloc::layout::LayoutErr>", align 8
  %_4 = alloca { [0 x i64], { i64, i64 }, [0 x i64], i64, [0 x i64] }, align 8
  %layout = alloca { i64, i64 }, align 8
  %0 = alloca { i64, i64 }, align 8
; call core::alloc::layout::Layout::new
  %1 = call { i64, i64 } @_ZN4core5alloc6layout6Layout3new17h15ff16a17c007db0E()
  store { i64, i64 } %1, { i64, i64 }* %_8, align 8
  br label %bb1

bb1:                                              ; preds = %start
; call core::alloc::layout::Layout::repeat
  call void @_ZN4core5alloc6layout6Layout6repeat17he6def6ca46226924E(%"core::result::Result<(core::alloc::layout::Layout, usize), core::alloc::layout::LayoutErr>"* noalias nocapture sret dereferenceable(24) %_6, { i64, i64 }* noalias readonly align 8 dereferenceable(16) %_8, i64 %n)
  br label %bb2

bb2:                                              ; preds = %bb1
; call <core::result::Result<T,E> as core::ops::try::Try>::into_result
  call void @"_ZN73_$LT$core..result..Result$LT$T$C$E$GT$$u20$as$u20$core..ops..try..Try$GT$11into_result17hedc084420f239b69E"(%"core::result::Result<(core::alloc::layout::Layout, usize), core::alloc::layout::LayoutErr>"* noalias nocapture sret dereferenceable(24) %_5, %"core::result::Result<(core::alloc::layout::Layout, usize), core::alloc::layout::LayoutErr>"* noalias nocapture dereferenceable(24) %_6)
  br label %bb3

bb3:                                              ; preds = %bb2
  %2 = getelementptr inbounds %"core::result::Result<(core::alloc::layout::Layout, usize), core::alloc::layout::LayoutErr>", %"core::result::Result<(core::alloc::layout::Layout, usize), core::alloc::layout::LayoutErr>"* %_5, i32 0, i32 1
  %3 = load i64, i64* %2, align 8
  %4 = icmp ule i64 %3, 0
  %_10 = select i1 %4, i64 1, i64 0
  switch i64 %_10, label %bb5 [
    i64 0, label %bb4
    i64 1, label %bb6
  ]

bb4:                                              ; preds = %bb3
  %5 = bitcast %"core::result::Result<(core::alloc::layout::Layout, usize), core::alloc::layout::LayoutErr>"* %_5 to %"core::result::Result<(core::alloc::layout::Layout, usize), core::alloc::layout::LayoutErr>::Ok"*
  %6 = bitcast %"core::result::Result<(core::alloc::layout::Layout, usize), core::alloc::layout::LayoutErr>::Ok"* %5 to { [0 x i64], { i64, i64 }, [0 x i64], i64, [0 x i64] }*
  %7 = bitcast { [0 x i64], { i64, i64 }, [0 x i64], i64, [0 x i64] }* %val to i8*
  %8 = bitcast { [0 x i64], { i64, i64 }, [0 x i64], i64, [0 x i64] }* %6 to i8*
  call void @llvm.memcpy.p0i8.p0i8.i64(i8* align 8 %7, i8* align 8 %8, i64 24, i1 false)
  %9 = bitcast { [0 x i64], { i64, i64 }, [0 x i64], i64, [0 x i64] }* %_4 to i8*
  %10 = bitcast { [0 x i64], { i64, i64 }, [0 x i64], i64, [0 x i64] }* %val to i8*
  call void @llvm.memcpy.p0i8.p0i8.i64(i8* align 8 %9, i8* align 8 %10, i64 24, i1 false)
  %11 = bitcast { [0 x i64], { i64, i64 }, [0 x i64], i64, [0 x i64] }* %_4 to { i64, i64 }*
  %12 = getelementptr inbounds { i64, i64 }, { i64, i64 }* %11, i32 0, i32 0
  %13 = load i64, i64* %12, align 8
  %14 = getelementptr inbounds { i64, i64 }, { i64, i64 }* %11, i32 0, i32 1
  %15 = load i64, i64* %14, align 8, !range !5
  %16 = getelementptr inbounds { i64, i64 }, { i64, i64 }* %layout, i32 0, i32 0
  store i64 %13, i64* %16, align 8
  %17 = getelementptr inbounds { i64, i64 }, { i64, i64 }* %layout, i32 0, i32 1
  store i64 %15, i64* %17, align 8
  %18 = getelementptr inbounds { [0 x i64], { i64, i64 }, [0 x i64], i64, [0 x i64] }, { [0 x i64], { i64, i64 }, [0 x i64], i64, [0 x i64] }* %_4, i32 0, i32 3
  %offset = load i64, i64* %18, align 8
; call core::alloc::layout::Layout::pad_to_align
  %19 = call { i64, i64 } @_ZN4core5alloc6layout6Layout12pad_to_align17hafe30aadc3a23aeeE({ i64, i64 }* noalias readonly align 8 dereferenceable(16) %layout)
  %_19.0 = extractvalue { i64, i64 } %19, 0
  %_19.1 = extractvalue { i64, i64 } %19, 1
  br label %bb10

bb5:                                              ; preds = %bb3
  unreachable

bb6:                                              ; preds = %bb3
; call <T as core::convert::From<T>>::from
  call void @"_ZN50_$LT$T$u20$as$u20$core..convert..From$LT$T$GT$$GT$4from17h32d6a0084827c257E"()
  br label %bb8

bb7:                                              ; preds = %bb10, %bb9
  %20 = getelementptr inbounds { i64, i64 }, { i64, i64 }* %0, i32 0, i32 0
  %21 = load i64, i64* %20, align 8
  %22 = getelementptr inbounds { i64, i64 }, { i64, i64 }* %0, i32 0, i32 1
  %23 = load i64, i64* %22, align 8
  %24 = insertvalue { i64, i64 } undef, i64 %21, 0
  %25 = insertvalue { i64, i64 } %24, i64 %23, 1
  ret { i64, i64 } %25

bb8:                                              ; preds = %bb6
; call <core::result::Result<T,E> as core::ops::try::Try>::from_error
  %26 = call { i64, i64 } @"_ZN73_$LT$core..result..Result$LT$T$C$E$GT$$u20$as$u20$core..ops..try..Try$GT$10from_error17h3875767435ffbebfE"()
  store { i64, i64 } %26, { i64, i64 }* %0, align 8
  br label %bb9

bb9:                                              ; preds = %bb8
  br label %bb7

bb10:                                             ; preds = %bb4
  %27 = getelementptr inbounds { i64, i64 }, { i64, i64 }* %0, i32 0, i32 0
  store i64 %_19.0, i64* %27, align 8
  %28 = getelementptr inbounds { i64, i64 }, { i64, i64 }* %0, i32 0, i32 1
  store i64 %_19.1, i64* %28, align 8
  br label %bb7
}

; core::alloc::layout::Layout::repeat
; Function Attrs: inlinehint uwtable
define internal void @_ZN4core5alloc6layout6Layout6repeat17he6def6ca46226924E(%"core::result::Result<(core::alloc::layout::Layout, usize), core::alloc::layout::LayoutErr>"* noalias nocapture sret dereferenceable(24), { i64, i64 }* noalias readonly align 8 dereferenceable(16) %self, i64 %n) unnamed_addr #0 {
start:
  %_22 = alloca { [0 x i64], { i64, i64 }, [0 x i64], i64, [0 x i64] }, align 8
  %_11 = alloca { i64, i64 }, align 8
; call core::alloc::layout::Layout::size
  %_4 = call i64 @_ZN4core5alloc6layout6Layout4size17hbdac7274e3f9b2e7E({ i64, i64 }* noalias readonly align 8 dereferenceable(16) %self)
  br label %bb1

bb1:                                              ; preds = %start
; call core::alloc::layout::Layout::align
  %_8 = call i64 @_ZN4core5alloc6layout6Layout5align17hcae6aab17c1029b1E({ i64, i64 }* noalias readonly align 8 dereferenceable(16) %self)
  br label %bb2

bb2:                                              ; preds = %bb1
; call core::alloc::layout::Layout::padding_needed_for
  %_6 = call i64 @_ZN4core5alloc6layout6Layout18padding_needed_for17h6441f0c55e64d4e4E({ i64, i64 }* noalias readonly align 8 dereferenceable(16) %self, i64 %_8)
  br label %bb3

bb3:                                              ; preds = %bb2
  %padded_size = add i64 %_4, %_6
; call core::num::<impl usize>::checked_mul
  %1 = call { i64, i64 } @"_ZN4core3num23_$LT$impl$u20$usize$GT$11checked_mul17ha7b9dc81a7be28ddE"(i64 %padded_size, i64 %n)
  %_13.0 = extractvalue { i64, i64 } %1, 0
  %_13.1 = extractvalue { i64, i64 } %1, 1
  br label %bb4

bb4:                                              ; preds = %bb3
; call core::option::Option<T>::ok_or
  %2 = call { i64, i64 } @"_ZN4core6option15Option$LT$T$GT$5ok_or17h109632ac04bdd991E"(i64 %_13.0, i64 %_13.1)
  %_12.0 = extractvalue { i64, i64 } %2, 0
  %_12.1 = extractvalue { i64, i64 } %2, 1
  br label %bb5

bb5:                                              ; preds = %bb4
; call <core::result::Result<T,E> as core::ops::try::Try>::into_result
  %3 = call { i64, i64 } @"_ZN73_$LT$core..result..Result$LT$T$C$E$GT$$u20$as$u20$core..ops..try..Try$GT$11into_result17hca774a9b02efba75E"(i64 %_12.0, i64 %_12.1)
  store { i64, i64 } %3, { i64, i64 }* %_11, align 8
  br label %bb6

bb6:                                              ; preds = %bb5
  %4 = bitcast { i64, i64 }* %_11 to i64*
  %_17 = load i64, i64* %4, align 8, !range !6
  switch i64 %_17, label %bb8 [
    i64 0, label %bb7
    i64 1, label %bb9
  ]

bb7:                                              ; preds = %bb6
  %5 = bitcast { i64, i64 }* %_11 to %"core::result::Result<usize, core::alloc::layout::LayoutErr>::Ok"*
  %6 = getelementptr inbounds %"core::result::Result<usize, core::alloc::layout::LayoutErr>::Ok", %"core::result::Result<usize, core::alloc::layout::LayoutErr>::Ok"* %5, i32 0, i32 1
  %val = load i64, i64* %6, align 8
; call core::alloc::layout::Layout::align
  %_25 = call i64 @_ZN4core5alloc6layout6Layout5align17hcae6aab17c1029b1E({ i64, i64 }* noalias readonly align 8 dereferenceable(16) %self)
  br label %bb13

bb8:                                              ; preds = %bb6
  unreachable

bb9:                                              ; preds = %bb6
; call <T as core::convert::From<T>>::from
  call void @"_ZN50_$LT$T$u20$as$u20$core..convert..From$LT$T$GT$$GT$4from17h32d6a0084827c257E"()
  br label %bb11

bb10:                                             ; preds = %bb14, %bb12
  ret void

bb11:                                             ; preds = %bb9
; call <core::result::Result<T,E> as core::ops::try::Try>::from_error
  call void @"_ZN73_$LT$core..result..Result$LT$T$C$E$GT$$u20$as$u20$core..ops..try..Try$GT$10from_error17hfa6493931fd7f86fE"(%"core::result::Result<(core::alloc::layout::Layout, usize), core::alloc::layout::LayoutErr>"* noalias nocapture sret dereferenceable(24) %0)
  br label %bb12

bb12:                                             ; preds = %bb11
  br label %bb10

bb13:                                             ; preds = %bb7
; call core::alloc::layout::Layout::from_size_align_unchecked
  %7 = call { i64, i64 } @_ZN4core5alloc6layout6Layout25from_size_align_unchecked17he7ab51f0c26ed189E(i64 %val, i64 %_25)
  %_23.0 = extractvalue { i64, i64 } %7, 0
  %_23.1 = extractvalue { i64, i64 } %7, 1
  br label %bb14

bb14:                                             ; preds = %bb13
  %8 = bitcast { [0 x i64], { i64, i64 }, [0 x i64], i64, [0 x i64] }* %_22 to { i64, i64 }*
  %9 = getelementptr inbounds { i64, i64 }, { i64, i64 }* %8, i32 0, i32 0
  store i64 %_23.0, i64* %9, align 8
  %10 = getelementptr inbounds { i64, i64 }, { i64, i64 }* %8, i32 0, i32 1
  store i64 %_23.1, i64* %10, align 8
  %11 = getelementptr inbounds { [0 x i64], { i64, i64 }, [0 x i64], i64, [0 x i64] }, { [0 x i64], { i64, i64 }, [0 x i64], i64, [0 x i64] }* %_22, i32 0, i32 3
  store i64 %padded_size, i64* %11, align 8
  %12 = bitcast %"core::result::Result<(core::alloc::layout::Layout, usize), core::alloc::layout::LayoutErr>"* %0 to %"core::result::Result<(core::alloc::layout::Layout, usize), core::alloc::layout::LayoutErr>::Ok"*
  %13 = bitcast %"core::result::Result<(core::alloc::layout::Layout, usize), core::alloc::layout::LayoutErr>::Ok"* %12 to { [0 x i64], { i64, i64 }, [0 x i64], i64, [0 x i64] }*
  %14 = bitcast { [0 x i64], { i64, i64 }, [0 x i64], i64, [0 x i64] }* %13 to i8*
  %15 = bitcast { [0 x i64], { i64, i64 }, [0 x i64], i64, [0 x i64] }* %_22 to i8*
  call void @llvm.memcpy.p0i8.p0i8.i64(i8* align 8 %14, i8* align 8 %15, i64 24, i1 false)
  br label %bb10
}

; core::alloc::layout::Layout::dangling
; Function Attrs: inlinehint uwtable
define internal nonnull i8* @_ZN4core5alloc6layout6Layout8dangling17hccb85f1be52d9156E({ i64, i64 }* noalias readonly align 8 dereferenceable(16) %self) unnamed_addr #0 {
start:
; call core::alloc::layout::Layout::align
  %_3 = call i64 @_ZN4core5alloc6layout6Layout5align17hcae6aab17c1029b1E({ i64, i64 }* noalias readonly align 8 dereferenceable(16) %self)
  br label %bb1

bb1:                                              ; preds = %start
  %_2 = inttoptr i64 %_3 to i8*
; call core::ptr::non_null::NonNull<T>::new_unchecked
  %0 = call nonnull i8* @"_ZN4core3ptr8non_null16NonNull$LT$T$GT$13new_unchecked17h41fc3ee18276955bE"(i8* %_2)
  br label %bb2

bb2:                                              ; preds = %bb1
  ret i8* %0
}

; core::alloc::AllocInit::init_offset
; Function Attrs: inlinehint uwtable
define internal void @_ZN4core5alloc9AllocInit11init_offset17h55f37961b25adf58E(i1 zeroext, i8* nonnull %memory.0, i64 %memory.1, i64 %offset) unnamed_addr #0 {
start:
  %self = alloca i8, align 1
  %1 = zext i1 %0 to i8
  store i8 %1, i8* %self, align 1
  %2 = load i8, i8* %self, align 1, !range !4
  %3 = trunc i8 %2 to i1
  %_4 = zext i1 %3 to i64
  switch i64 %_4, label %bb2 [
    i64 0, label %bb6
    i64 1, label %bb1
  ]

bb1:                                              ; preds = %start
; call core::ptr::non_null::NonNull<T>::as_ptr
  %_6 = call i8* @"_ZN4core3ptr8non_null16NonNull$LT$T$GT$6as_ptr17h7aed512d2cafdabeE"(i8* nonnull %memory.0)
  br label %bb3

bb2:                                              ; preds = %start
  unreachable

bb3:                                              ; preds = %bb1
; call core::ptr::mut_ptr::<impl *mut T>::add
  %_5 = call i8* @"_ZN4core3ptr7mut_ptr31_$LT$impl$u20$$BP$mut$u20$T$GT$3add17h9d8f05381764e279E"(i8* %_6, i64 %offset)
  br label %bb4

bb4:                                              ; preds = %bb3
  %_9 = sub i64 %memory.1, %offset
; call core::ptr::mut_ptr::<impl *mut T>::write_bytes
  call void @"_ZN4core3ptr7mut_ptr31_$LT$impl$u20$$BP$mut$u20$T$GT$11write_bytes17he118d9137a06c132E"(i8* %_5, i8 0, i64 %_9)
  br label %bb5

bb5:                                              ; preds = %bb4
  br label %bb6

bb6:                                              ; preds = %bb5, %start
  ret void
}

; core::slice::Iter<T>::as_slice
; Function Attrs: uwtable
define internal { [0 x i8]*, i64 } @"_ZN4core5slice13Iter$LT$T$GT$8as_slice17h29fc01fc4a8b927eE"({ i8*, i8* }* noalias readonly align 8 dereferenceable(16) %self) unnamed_addr #1 {
start:
  %0 = alloca i64, align 8
  %1 = alloca i64, align 8
  %_6.i = alloca i64, align 8
  %2 = bitcast { i8*, i8* }* %self to i8**
  %_5.i = load i8*, i8** %2, align 8, !alias.scope !10, !nonnull !2
; call core::ptr::non_null::NonNull<T>::as_ptr
  %_4.i = call i8* @"_ZN4core3ptr8non_null16NonNull$LT$T$GT$6as_ptr17h7aed512d2cafdabeE"(i8* nonnull %_5.i), !noalias !10
  %3 = bitcast { i8*, i8* }* %self to i8**
  %start1.i = load i8*, i8** %3, align 8, !alias.scope !10, !nonnull !2
; call core::ptr::non_null::NonNull<T>::as_ptr
  %_10.i = call i8* @"_ZN4core3ptr8non_null16NonNull$LT$T$GT$6as_ptr17h7aed512d2cafdabeE"(i8* nonnull %start1.i), !noalias !10
  store i64 1, i64* %0, align 8, !noalias !10
  %4 = load i64, i64* %0, align 8, !noalias !10
  %_12.i = icmp eq i64 %4, 0
  br i1 %_12.i, label %bb5.i, label %bb4.i

bb4.i:                                            ; preds = %start
  %5 = getelementptr inbounds { i8*, i8* }, { i8*, i8* }* %self, i32 0, i32 1
  %_21.i = load i8*, i8** %5, align 8, !alias.scope !10
  %_20.i = ptrtoint i8* %_21.i to i64
; call core::ptr::non_null::NonNull<T>::as_ptr
  %_23.i = call i8* @"_ZN4core3ptr8non_null16NonNull$LT$T$GT$6as_ptr17h7aed512d2cafdabeE"(i8* nonnull %start1.i), !noalias !10
  %_22.i = ptrtoint i8* %_23.i to i64
  %6 = sub nuw i64 %_20.i, %_22.i
  store i64 %6, i64* %1, align 8, !noalias !10
  %diff.i = load i64, i64* %1, align 8, !noalias !10
  %7 = udiv exact i64 %diff.i, %4
  store i64 %7, i64* %_6.i, align 8, !noalias !10
  br label %"_ZN4core5slice13Iter$LT$T$GT$10make_slice17h3a0115b9d1dcd37fE.exit"

bb5.i:                                            ; preds = %start
  %8 = getelementptr inbounds { i8*, i8* }, { i8*, i8* }* %self, i32 0, i32 1
  %_15.i = load i8*, i8** %8, align 8, !alias.scope !10
  %_14.i = ptrtoint i8* %_15.i to i64
; call core::ptr::non_null::NonNull<T>::as_ptr
  %_17.i = call i8* @"_ZN4core3ptr8non_null16NonNull$LT$T$GT$6as_ptr17h7aed512d2cafdabeE"(i8* nonnull %start1.i), !noalias !10
  %_16.i = ptrtoint i8* %_17.i to i64
; call core::num::<impl usize>::wrapping_sub
  %9 = call i64 @"_ZN4core3num23_$LT$impl$u20$usize$GT$12wrapping_sub17h283a835cc3a04a13E"(i64 %_14.i, i64 %_16.i), !noalias !10
  store i64 %9, i64* %_6.i, align 8, !noalias !10
  br label %"_ZN4core5slice13Iter$LT$T$GT$10make_slice17h3a0115b9d1dcd37fE.exit"

"_ZN4core5slice13Iter$LT$T$GT$10make_slice17h3a0115b9d1dcd37fE.exit": ; preds = %bb5.i, %bb4.i
  %10 = load i64, i64* %_6.i, align 8, !noalias !10
; call core::slice::from_raw_parts
  %11 = call { [0 x i8]*, i64 } @_ZN4core5slice14from_raw_parts17h0dec3054d1c8fd8eE(i8* %_4.i, i64 %10), !noalias !10
  %_2.0.i = extractvalue { [0 x i8]*, i64 } %11, 0
  %_2.1.i = extractvalue { [0 x i8]*, i64 } %11, 1
  %_2.0 = extractvalue { [0 x i8]*, i64 } %11, 0
  %_2.1 = extractvalue { [0 x i8]*, i64 } %11, 1
  br label %bb1

bb1:                                              ; preds = %"_ZN4core5slice13Iter$LT$T$GT$10make_slice17h3a0115b9d1dcd37fE.exit"
  %12 = insertvalue { [0 x i8]*, i64 } undef, [0 x i8]* %_2.0, 0
  %13 = insertvalue { [0 x i8]*, i64 } %12, i64 %_2.1, 1
  ret { [0 x i8]*, i64 } %13
}

; core::slice::from_raw_parts
; Function Attrs: inlinehint uwtable
define internal { [0 x i8]*, i64 } @_ZN4core5slice14from_raw_parts17h0dec3054d1c8fd8eE(i8* %data, i64 %len) unnamed_addr #0 {
start:
; call core::ptr::slice_from_raw_parts
  %0 = call { [0 x i8]*, i64 } @_ZN4core3ptr20slice_from_raw_parts17h4aebc4252150b395E(i8* %data, i64 %len)
  %_4.0 = extractvalue { [0 x i8]*, i64 } %0, 0
  %_4.1 = extractvalue { [0 x i8]*, i64 } %0, 1
  br label %bb1

bb1:                                              ; preds = %start
  %1 = insertvalue { [0 x i8]*, i64 } undef, [0 x i8]* %_4.0, 0
  %2 = insertvalue { [0 x i8]*, i64 } %1, i64 %_4.1, 1
  ret { [0 x i8]*, i64 } %2
}

; core::slice::from_raw_parts
; Function Attrs: inlinehint uwtable
define internal { [0 x %"alloc::string::String"]*, i64 } @_ZN4core5slice14from_raw_parts17h75245e6511023edcE(%"alloc::string::String"* %data, i64 %len) unnamed_addr #0 {
start:
; call core::ptr::slice_from_raw_parts
  %0 = call { [0 x %"alloc::string::String"]*, i64 } @_ZN4core3ptr20slice_from_raw_parts17h6fdce1999aa82852E(%"alloc::string::String"* %data, i64 %len)
  %_4.0 = extractvalue { [0 x %"alloc::string::String"]*, i64 } %0, 0
  %_4.1 = extractvalue { [0 x %"alloc::string::String"]*, i64 } %0, 1
  br label %bb1

bb1:                                              ; preds = %start
  %1 = insertvalue { [0 x %"alloc::string::String"]*, i64 } undef, [0 x %"alloc::string::String"]* %_4.0, 0
  %2 = insertvalue { [0 x %"alloc::string::String"]*, i64 } %1, i64 %_4.1, 1
  ret { [0 x %"alloc::string::String"]*, i64 } %2
}

; core::slice::from_raw_parts_mut
; Function Attrs: inlinehint uwtable
define internal { [0 x i8]*, i64 } @_ZN4core5slice18from_raw_parts_mut17h5ddf05e6e83b1e47E(i8* %data, i64 %len) unnamed_addr #0 {
start:
; call core::ptr::slice_from_raw_parts_mut
  %0 = call { [0 x i8]*, i64 } @_ZN4core3ptr24slice_from_raw_parts_mut17h5508d02a391d8df2E(i8* %data, i64 %len)
  %_5.0 = extractvalue { [0 x i8]*, i64 } %0, 0
  %_5.1 = extractvalue { [0 x i8]*, i64 } %0, 1
  br label %bb1

bb1:                                              ; preds = %start
  %1 = insertvalue { [0 x i8]*, i64 } undef, [0 x i8]* %_5.0, 0
  %2 = insertvalue { [0 x i8]*, i64 } %1, i64 %_5.1, 1
  ret { [0 x i8]*, i64 } %2
}

; core::slice::from_raw_parts_mut
; Function Attrs: inlinehint uwtable
define internal { [0 x %"alloc::string::String"]*, i64 } @_ZN4core5slice18from_raw_parts_mut17ha1777a2df6998c6bE(%"alloc::string::String"* %data, i64 %len) unnamed_addr #0 {
start:
; call core::ptr::slice_from_raw_parts_mut
  %0 = call { [0 x %"alloc::string::String"]*, i64 } @_ZN4core3ptr24slice_from_raw_parts_mut17hf768f3c181d3a6b7E(%"alloc::string::String"* %data, i64 %len)
  %_5.0 = extractvalue { [0 x %"alloc::string::String"]*, i64 } %0, 0
  %_5.1 = extractvalue { [0 x %"alloc::string::String"]*, i64 } %0, 1
  br label %bb1

bb1:                                              ; preds = %start
  %1 = insertvalue { [0 x %"alloc::string::String"]*, i64 } undef, [0 x %"alloc::string::String"]* %_5.0, 0
  %2 = insertvalue { [0 x %"alloc::string::String"]*, i64 } %1, i64 %_5.1, 1
  ret { [0 x %"alloc::string::String"]*, i64 } %2
}

; core::slice::<impl [T]>::as_mut_ptr
; Function Attrs: inlinehint uwtable
define internal i8* @"_ZN4core5slice29_$LT$impl$u20$$u5b$T$u5d$$GT$10as_mut_ptr17h95f2a2f64d092b97E"([0 x i8]* nonnull align 1 %self.0, i64 %self.1) unnamed_addr #0 {
start:
  %0 = bitcast [0 x i8]* %self.0 to i8*
  ret i8* %0
}

; core::slice::<impl [T]>::split_at_mut
; Function Attrs: inlinehint uwtable
define internal void @"_ZN4core5slice29_$LT$impl$u20$$u5b$T$u5d$$GT$12split_at_mut17h280cdeecb4e1759dE"({ [0 x i64], { [0 x i8]*, i64 }, [0 x i64], { [0 x i8]*, i64 }, [0 x i64] }* noalias nocapture sret dereferenceable(32), [0 x i8]* nonnull align 1 %self.0, i64 %self.1, i64 %mid) unnamed_addr #0 {
start:
; call core::slice::<impl [T]>::len
  %len = call i64 @"_ZN4core5slice29_$LT$impl$u20$$u5b$T$u5d$$GT$3len17h77299b4caeb1f985E"([0 x i8]* noalias nonnull readonly align 1 %self.0, i64 %self.1)
  br label %bb1

bb1:                                              ; preds = %start
; call core::slice::<impl [T]>::as_mut_ptr
  %ptr = call i8* @"_ZN4core5slice29_$LT$impl$u20$$u5b$T$u5d$$GT$10as_mut_ptr17h95f2a2f64d092b97E"([0 x i8]* nonnull align 1 %self.0, i64 %self.1)
  br label %bb2

bb2:                                              ; preds = %bb1
  %_8 = icmp ule i64 %mid, %len
  %_7 = xor i1 %_8, true
  br i1 %_7, label %bb4, label %bb3

bb3:                                              ; preds = %bb2
; call core::slice::from_raw_parts_mut
  %1 = call { [0 x i8]*, i64 } @_ZN4core5slice18from_raw_parts_mut17h5ddf05e6e83b1e47E(i8* %ptr, i64 %mid)
  %_14.0 = extractvalue { [0 x i8]*, i64 } %1, 0
  %_14.1 = extractvalue { [0 x i8]*, i64 } %1, 1
  br label %bb5

bb4:                                              ; preds = %bb2
; call core::panicking::panic
  call void @_ZN4core9panicking5panic17hfb3ef93dcafb964cE([0 x i8]* noalias nonnull readonly align 1 bitcast (<{ [28 x i8] }>* @alloc58 to [0 x i8]*), i64 28, %"core::panic::Location"* noalias readonly align 8 dereferenceable(24) bitcast (<{ i8*, [16 x i8] }>* @alloc60 to %"core::panic::Location"*))
  unreachable

bb5:                                              ; preds = %bb3
; call core::ptr::mut_ptr::<impl *mut T>::add
  %_19 = call i8* @"_ZN4core3ptr7mut_ptr31_$LT$impl$u20$$BP$mut$u20$T$GT$3add17h9d8f05381764e279E"(i8* %ptr, i64 %mid)
  br label %bb6

bb6:                                              ; preds = %bb5
  %_22 = sub i64 %len, %mid
; call core::slice::from_raw_parts_mut
  %2 = call { [0 x i8]*, i64 } @_ZN4core5slice18from_raw_parts_mut17h5ddf05e6e83b1e47E(i8* %_19, i64 %_22)
  %_18.0 = extractvalue { [0 x i8]*, i64 } %2, 0
  %_18.1 = extractvalue { [0 x i8]*, i64 } %2, 1
  br label %bb7

bb7:                                              ; preds = %bb6
  %3 = bitcast { [0 x i64], { [0 x i8]*, i64 }, [0 x i64], { [0 x i8]*, i64 }, [0 x i64] }* %0 to { [0 x i8]*, i64 }*
  %4 = getelementptr inbounds { [0 x i8]*, i64 }, { [0 x i8]*, i64 }* %3, i32 0, i32 0
  store [0 x i8]* %_14.0, [0 x i8]** %4, align 8
  %5 = getelementptr inbounds { [0 x i8]*, i64 }, { [0 x i8]*, i64 }* %3, i32 0, i32 1
  store i64 %_14.1, i64* %5, align 8
  %6 = getelementptr inbounds { [0 x i64], { [0 x i8]*, i64 }, [0 x i64], { [0 x i8]*, i64 }, [0 x i64] }, { [0 x i64], { [0 x i8]*, i64 }, [0 x i64], { [0 x i8]*, i64 }, [0 x i64] }* %0, i32 0, i32 3
  %7 = getelementptr inbounds { [0 x i8]*, i64 }, { [0 x i8]*, i64 }* %6, i32 0, i32 0
  store [0 x i8]* %_18.0, [0 x i8]** %7, align 8
  %8 = getelementptr inbounds { [0 x i8]*, i64 }, { [0 x i8]*, i64 }* %6, i32 0, i32 1
  store i64 %_18.1, i64* %8, align 8
  ret void
}

; core::slice::<impl [T]>::copy_from_slice
; Function Attrs: uwtable
define internal void @"_ZN4core5slice29_$LT$impl$u20$$u5b$T$u5d$$GT$15copy_from_slice17hd029b53a128194c0E"([0 x i8]* nonnull align 1 %self.0, i64 %self.1, [0 x i8]* noalias nonnull readonly align 1 %src.0, i64 %src.1) unnamed_addr #1 {
start:
  %_30 = alloca %"core::fmt::Arguments", align 8
  %_28 = alloca i64*, align 8
  %_26 = alloca i64*, align 8
  %_24 = alloca { [0 x i64], i64**, [0 x i64], i64**, [0 x i64], %"core::fmt::Arguments"*, [0 x i64] }, align 8
  %_23 = alloca [3 x { i8*, i8* }], align 8
  %_16 = alloca %"core::fmt::Arguments", align 8
  %_8 = alloca i64, align 8
  %_5 = alloca i64, align 8
  %_3 = alloca { i64*, i64* }, align 8
; call core::slice::<impl [T]>::len
  %0 = call i64 @"_ZN4core5slice29_$LT$impl$u20$$u5b$T$u5d$$GT$3len17h77299b4caeb1f985E"([0 x i8]* noalias nonnull readonly align 1 %self.0, i64 %self.1)
  store i64 %0, i64* %_5, align 8
  br label %bb1

bb1:                                              ; preds = %start
; call core::slice::<impl [T]>::len
  %1 = call i64 @"_ZN4core5slice29_$LT$impl$u20$$u5b$T$u5d$$GT$3len17h77299b4caeb1f985E"([0 x i8]* noalias nonnull readonly align 1 %src.0, i64 %src.1)
  store i64 %1, i64* %_8, align 8
  br label %bb2

bb2:                                              ; preds = %bb1
  %2 = bitcast { i64*, i64* }* %_3 to i64**
  store i64* %_5, i64** %2, align 8
  %3 = getelementptr inbounds { i64*, i64* }, { i64*, i64* }* %_3, i32 0, i32 1
  store i64* %_8, i64** %3, align 8
  %4 = bitcast { i64*, i64* }* %_3 to i64**
  %left_val = load i64*, i64** %4, align 8, !nonnull !2
  %5 = getelementptr inbounds { i64*, i64* }, { i64*, i64* }* %_3, i32 0, i32 1
  %right_val = load i64*, i64** %5, align 8, !nonnull !2
  %_14 = load i64, i64* %left_val, align 8
  %_15 = load i64, i64* %right_val, align 8
  %_13 = icmp eq i64 %_14, %_15
  %_12 = xor i1 %_13, true
  br i1 %_12, label %bb4, label %bb3

bb3:                                              ; preds = %bb2
; call core::slice::<impl [T]>::as_ptr
  %_50 = call i8* @"_ZN4core5slice29_$LT$impl$u20$$u5b$T$u5d$$GT$6as_ptr17h07757a7056a7f581E"([0 x i8]* noalias nonnull readonly align 1 %src.0, i64 %src.1)
  br label %bb10

bb4:                                              ; preds = %bb2
  %_58 = load [3 x { [0 x i8]*, i64 }]*, [3 x { [0 x i8]*, i64 }]** bitcast (<{ i8*, [0 x i8] }>* @0 to [3 x { [0 x i8]*, i64 }]**), align 8, !nonnull !2
  %_17.0 = bitcast [3 x { [0 x i8]*, i64 }]* %_58 to [0 x { [0 x i8]*, i64 }]*
  store i64* %left_val, i64** %_26, align 8
  store i64* %right_val, i64** %_28, align 8
  %_57 = load [1 x { [0 x i8]*, i64 }]*, [1 x { [0 x i8]*, i64 }]** bitcast (<{ i8*, [0 x i8] }>* @1 to [1 x { [0 x i8]*, i64 }]**), align 8, !nonnull !2
  %_31.0 = bitcast [1 x { [0 x i8]*, i64 }]* %_57 to [0 x { [0 x i8]*, i64 }]*
  %_56 = load [0 x { i8*, i8* }]*, [0 x { i8*, i8* }]** bitcast (<{ i8*, [0 x i8] }>* @2 to [0 x { i8*, i8* }]**), align 8, !nonnull !2
; call core::fmt::Arguments::new_v1
  call void @_ZN4core3fmt9Arguments6new_v117hf53eb7139e4dcbecE(%"core::fmt::Arguments"* noalias nocapture sret dereferenceable(48) %_30, [0 x { [0 x i8]*, i64 }]* noalias nonnull readonly align 8 %_31.0, i64 1, [0 x { i8*, i8* }]* noalias nonnull readonly align 8 %_56, i64 0)
  br label %bb5

bb5:                                              ; preds = %bb4
  %6 = bitcast { [0 x i64], i64**, [0 x i64], i64**, [0 x i64], %"core::fmt::Arguments"*, [0 x i64] }* %_24 to i64***
  store i64** %_26, i64*** %6, align 8
  %7 = getelementptr inbounds { [0 x i64], i64**, [0 x i64], i64**, [0 x i64], %"core::fmt::Arguments"*, [0 x i64] }, { [0 x i64], i64**, [0 x i64], i64**, [0 x i64], %"core::fmt::Arguments"*, [0 x i64] }* %_24, i32 0, i32 3
  store i64** %_28, i64*** %7, align 8
  %8 = getelementptr inbounds { [0 x i64], i64**, [0 x i64], i64**, [0 x i64], %"core::fmt::Arguments"*, [0 x i64] }, { [0 x i64], i64**, [0 x i64], i64**, [0 x i64], %"core::fmt::Arguments"*, [0 x i64] }* %_24, i32 0, i32 5
  store %"core::fmt::Arguments"* %_30, %"core::fmt::Arguments"** %8, align 8
  %9 = bitcast { [0 x i64], i64**, [0 x i64], i64**, [0 x i64], %"core::fmt::Arguments"*, [0 x i64] }* %_24 to i64***
  %arg0 = load i64**, i64*** %9, align 8, !nonnull !2
  %10 = getelementptr inbounds { [0 x i64], i64**, [0 x i64], i64**, [0 x i64], %"core::fmt::Arguments"*, [0 x i64] }, { [0 x i64], i64**, [0 x i64], i64**, [0 x i64], %"core::fmt::Arguments"*, [0 x i64] }* %_24, i32 0, i32 3
  %arg1 = load i64**, i64*** %10, align 8, !nonnull !2
  %11 = getelementptr inbounds { [0 x i64], i64**, [0 x i64], i64**, [0 x i64], %"core::fmt::Arguments"*, [0 x i64] }, { [0 x i64], i64**, [0 x i64], i64**, [0 x i64], %"core::fmt::Arguments"*, [0 x i64] }* %_24, i32 0, i32 5
  %arg2 = load %"core::fmt::Arguments"*, %"core::fmt::Arguments"** %11, align 8, !nonnull !2
; call core::fmt::ArgumentV1::new
  %12 = call { i8*, i8* } @_ZN4core3fmt10ArgumentV13new17hf7abf2740769eae6E(i64** noalias readonly align 8 dereferenceable(8) %arg0, i1 (i64**, %"core::fmt::Formatter"*)* nonnull @"_ZN42_$LT$$RF$T$u20$as$u20$core..fmt..Debug$GT$3fmt17heefc32538d603acfE")
  %_40.0 = extractvalue { i8*, i8* } %12, 0
  %_40.1 = extractvalue { i8*, i8* } %12, 1
  br label %bb6

bb6:                                              ; preds = %bb5
; call core::fmt::ArgumentV1::new
  %13 = call { i8*, i8* } @_ZN4core3fmt10ArgumentV13new17hf7abf2740769eae6E(i64** noalias readonly align 8 dereferenceable(8) %arg1, i1 (i64**, %"core::fmt::Formatter"*)* nonnull @"_ZN42_$LT$$RF$T$u20$as$u20$core..fmt..Debug$GT$3fmt17heefc32538d603acfE")
  %_43.0 = extractvalue { i8*, i8* } %13, 0
  %_43.1 = extractvalue { i8*, i8* } %13, 1
  br label %bb7

bb7:                                              ; preds = %bb6
; call core::fmt::ArgumentV1::new
  %14 = call { i8*, i8* } @_ZN4core3fmt10ArgumentV13new17he537cd9ec6f120a3E(%"core::fmt::Arguments"* noalias readonly align 8 dereferenceable(48) %arg2, i1 (%"core::fmt::Arguments"*, %"core::fmt::Formatter"*)* nonnull @"_ZN59_$LT$core..fmt..Arguments$u20$as$u20$core..fmt..Display$GT$3fmt17h45aedbb71055038dE")
  %_46.0 = extractvalue { i8*, i8* } %14, 0
  %_46.1 = extractvalue { i8*, i8* } %14, 1
  br label %bb8

bb8:                                              ; preds = %bb7
  %15 = bitcast [3 x { i8*, i8* }]* %_23 to { i8*, i8* }*
  %16 = getelementptr inbounds { i8*, i8* }, { i8*, i8* }* %15, i32 0, i32 0
  store i8* %_40.0, i8** %16, align 8
  %17 = getelementptr inbounds { i8*, i8* }, { i8*, i8* }* %15, i32 0, i32 1
  store i8* %_40.1, i8** %17, align 8
  %18 = getelementptr inbounds [3 x { i8*, i8* }], [3 x { i8*, i8* }]* %_23, i32 0, i32 1
  %19 = getelementptr inbounds { i8*, i8* }, { i8*, i8* }* %18, i32 0, i32 0
  store i8* %_43.0, i8** %19, align 8
  %20 = getelementptr inbounds { i8*, i8* }, { i8*, i8* }* %18, i32 0, i32 1
  store i8* %_43.1, i8** %20, align 8
  %21 = getelementptr inbounds [3 x { i8*, i8* }], [3 x { i8*, i8* }]* %_23, i32 0, i32 2
  %22 = getelementptr inbounds { i8*, i8* }, { i8*, i8* }* %21, i32 0, i32 0
  store i8* %_46.0, i8** %22, align 8
  %23 = getelementptr inbounds { i8*, i8* }, { i8*, i8* }* %21, i32 0, i32 1
  store i8* %_46.1, i8** %23, align 8
  %_20.0 = bitcast [3 x { i8*, i8* }]* %_23 to [0 x { i8*, i8* }]*
; call core::fmt::Arguments::new_v1
  call void @_ZN4core3fmt9Arguments6new_v117hf53eb7139e4dcbecE(%"core::fmt::Arguments"* noalias nocapture sret dereferenceable(48) %_16, [0 x { [0 x i8]*, i64 }]* noalias nonnull readonly align 8 %_17.0, i64 3, [0 x { i8*, i8* }]* noalias nonnull readonly align 8 %_20.0, i64 3)
  br label %bb9

bb9:                                              ; preds = %bb8
; call core::panicking::panic_fmt
  call void @_ZN4core9panicking9panic_fmt17h0a2d1b3ca0b14316E(%"core::fmt::Arguments"* noalias nocapture dereferenceable(48) %_16, %"core::panic::Location"* noalias readonly align 8 dereferenceable(24) bitcast (<{ i8*, [16 x i8] }>* @alloc62 to %"core::panic::Location"*))
  unreachable

bb10:                                             ; preds = %bb3
; call core::slice::<impl [T]>::as_mut_ptr
  %_52 = call i8* @"_ZN4core5slice29_$LT$impl$u20$$u5b$T$u5d$$GT$10as_mut_ptr17h95f2a2f64d092b97E"([0 x i8]* nonnull align 1 %self.0, i64 %self.1)
  br label %bb11

bb11:                                             ; preds = %bb10
; call core::slice::<impl [T]>::len
  %_54 = call i64 @"_ZN4core5slice29_$LT$impl$u20$$u5b$T$u5d$$GT$3len17h77299b4caeb1f985E"([0 x i8]* noalias nonnull readonly align 1 %self.0, i64 %self.1)
  br label %bb12

bb12:                                             ; preds = %bb11
; call core::intrinsics::copy_nonoverlapping
  call void @_ZN4core10intrinsics19copy_nonoverlapping17h52ae0954371888abE(i8* %_50, i8* %_52, i64 %_54)
  br label %bb13

bb13:                                             ; preds = %bb12
  ret void
}

; core::slice::<impl [T]>::get_unchecked_mut
; Function Attrs: inlinehint uwtable
define internal { [0 x i8]*, i64 } @"_ZN4core5slice29_$LT$impl$u20$$u5b$T$u5d$$GT$17get_unchecked_mut17h37cecbe3c1796b50E"([0 x i8]* nonnull align 1 %self.0, i64 %self.1, i64 %index.0, i64 %index.1) unnamed_addr #0 {
start:
; call <core::ops::range::Range<usize> as core::slice::SliceIndex<[T]>>::get_unchecked_mut
  %0 = call { [0 x i8]*, i64 } @"_ZN99_$LT$core..ops..range..Range$LT$usize$GT$$u20$as$u20$core..slice..SliceIndex$LT$$u5b$T$u5d$$GT$$GT$17get_unchecked_mut17h31c69fd123a400aaE"(i64 %index.0, i64 %index.1, [0 x i8]* nonnull align 1 %self.0, i64 %self.1)
  %_4.0 = extractvalue { [0 x i8]*, i64 } %0, 0
  %_4.1 = extractvalue { [0 x i8]*, i64 } %0, 1
  br label %bb1

bb1:                                              ; preds = %start
  %1 = insertvalue { [0 x i8]*, i64 } undef, [0 x i8]* %_4.0, 0
  %2 = insertvalue { [0 x i8]*, i64 } %1, i64 %_4.1, 1
  ret { [0 x i8]*, i64 } %2
}

; core::slice::<impl [T]>::len
; Function Attrs: inlinehint uwtable
define internal i64 @"_ZN4core5slice29_$LT$impl$u20$$u5b$T$u5d$$GT$3len17h721affa2de6b9a91E"([0 x %"alloc::string::String"]* noalias nonnull readonly align 8 %self.0, i64 %self.1) unnamed_addr #0 {
start:
  %_2 = alloca %"core::ptr::Repr<alloc::string::String>", align 8
  %0 = bitcast %"core::ptr::Repr<alloc::string::String>"* %_2 to { [0 x %"alloc::string::String"]*, i64 }*
  %1 = getelementptr inbounds { [0 x %"alloc::string::String"]*, i64 }, { [0 x %"alloc::string::String"]*, i64 }* %0, i32 0, i32 0
  store [0 x %"alloc::string::String"]* %self.0, [0 x %"alloc::string::String"]** %1, align 8
  %2 = getelementptr inbounds { [0 x %"alloc::string::String"]*, i64 }, { [0 x %"alloc::string::String"]*, i64 }* %0, i32 0, i32 1
  store i64 %self.1, i64* %2, align 8
  %3 = bitcast %"core::ptr::Repr<alloc::string::String>"* %_2 to { i64*, i64 }*
  %4 = getelementptr inbounds { i64*, i64 }, { i64*, i64 }* %3, i32 0, i32 1
  %5 = load i64, i64* %4, align 8
  ret i64 %5
}

; core::slice::<impl [T]>::len
; Function Attrs: inlinehint uwtable
define internal i64 @"_ZN4core5slice29_$LT$impl$u20$$u5b$T$u5d$$GT$3len17h77299b4caeb1f985E"([0 x i8]* noalias nonnull readonly align 1 %self.0, i64 %self.1) unnamed_addr #0 {
start:
  %_2 = alloca %"core::ptr::Repr<u8>", align 8
  %0 = bitcast %"core::ptr::Repr<u8>"* %_2 to { [0 x i8]*, i64 }*
  %1 = getelementptr inbounds { [0 x i8]*, i64 }, { [0 x i8]*, i64 }* %0, i32 0, i32 0
  store [0 x i8]* %self.0, [0 x i8]** %1, align 8
  %2 = getelementptr inbounds { [0 x i8]*, i64 }, { [0 x i8]*, i64 }* %0, i32 0, i32 1
  store i64 %self.1, i64* %2, align 8
  %3 = bitcast %"core::ptr::Repr<u8>"* %_2 to { i8*, i64 }*
  %4 = getelementptr inbounds { i8*, i64 }, { i8*, i64 }* %3, i32 0, i32 1
  %5 = load i64, i64* %4, align 8
  ret i64 %5
}

; core::slice::<impl [T]>::iter
; Function Attrs: inlinehint uwtable
define internal { i64*, i64* } @"_ZN4core5slice29_$LT$impl$u20$$u5b$T$u5d$$GT$4iter17h150d9ed34c34fac1E"([0 x %"alloc::string::String"]* noalias nonnull readonly align 8 %self.0, i64 %self.1) unnamed_addr #0 {
start:
  %0 = alloca i64, align 8
  %_23 = alloca %"core::marker::PhantomData<&alloc::string::String>", align 1
  %end = alloca %"alloc::string::String"*, align 8
  %1 = alloca { i64*, i64* }, align 8
; call core::slice::<impl [T]>::as_ptr
  %ptr = call %"alloc::string::String"* @"_ZN4core5slice29_$LT$impl$u20$$u5b$T$u5d$$GT$6as_ptr17he212850fc6d436d0E"([0 x %"alloc::string::String"]* noalias nonnull readonly align 8 %self.0, i64 %self.1)
  br label %bb1

bb1:                                              ; preds = %start
; call core::ptr::const_ptr::<impl *const T>::is_null
  %_6 = call zeroext i1 @"_ZN4core3ptr9const_ptr33_$LT$impl$u20$$BP$const$u20$T$GT$7is_null17hc9b6b6e9979218deE"(%"alloc::string::String"* %ptr)
  br label %bb2

bb2:                                              ; preds = %bb1
  %_5 = xor i1 %_6, true
  call void @llvm.assume(i1 %_5)
  br label %bb3

bb3:                                              ; preds = %bb2
  store i64 24, i64* %0, align 8
  %2 = load i64, i64* %0, align 8
  br label %bb4

bb4:                                              ; preds = %bb3
  %_9 = icmp eq i64 %2, 0
  br i1 %_9, label %bb6, label %bb5

bb5:                                              ; preds = %bb4
; call core::slice::<impl [T]>::len
  %_17 = call i64 @"_ZN4core5slice29_$LT$impl$u20$$u5b$T$u5d$$GT$3len17h721affa2de6b9a91E"([0 x %"alloc::string::String"]* noalias nonnull readonly align 8 %self.0, i64 %self.1)
  br label %bb9

bb6:                                              ; preds = %bb4
  %_12 = bitcast %"alloc::string::String"* %ptr to i8*
; call core::slice::<impl [T]>::len
  %_14 = call i64 @"_ZN4core5slice29_$LT$impl$u20$$u5b$T$u5d$$GT$3len17h721affa2de6b9a91E"([0 x %"alloc::string::String"]* noalias nonnull readonly align 8 %self.0, i64 %self.1)
  br label %bb7

bb7:                                              ; preds = %bb6
; call core::ptr::const_ptr::<impl *const T>::wrapping_add
  %_11 = call i8* @"_ZN4core3ptr9const_ptr33_$LT$impl$u20$$BP$const$u20$T$GT$12wrapping_add17hd95b929b27a61332E"(i8* %_12, i64 %_14)
  br label %bb8

bb8:                                              ; preds = %bb7
  %3 = bitcast i8* %_11 to %"alloc::string::String"*
  store %"alloc::string::String"* %3, %"alloc::string::String"** %end, align 8
  br label %bb11

bb9:                                              ; preds = %bb5
; call core::ptr::const_ptr::<impl *const T>::add
  %4 = call %"alloc::string::String"* @"_ZN4core3ptr9const_ptr33_$LT$impl$u20$$BP$const$u20$T$GT$3add17h83175e61ebc61687E"(%"alloc::string::String"* %ptr, i64 %_17)
  store %"alloc::string::String"* %4, %"alloc::string::String"** %end, align 8
  br label %bb10

bb10:                                             ; preds = %bb9
  br label %bb11

bb11:                                             ; preds = %bb10, %bb8
; call core::ptr::non_null::NonNull<T>::new_unchecked
  %_19 = call nonnull i64* @"_ZN4core3ptr8non_null16NonNull$LT$T$GT$13new_unchecked17h1a28f7c6af3ebc91E"(%"alloc::string::String"* %ptr)
  br label %bb12

bb12:                                             ; preds = %bb11
  %_22 = load %"alloc::string::String"*, %"alloc::string::String"** %end, align 8
  %5 = bitcast { i64*, i64* }* %1 to i64**
  store i64* %_19, i64** %5, align 8
  %6 = getelementptr inbounds { i64*, i64* }, { i64*, i64* }* %1, i32 0, i32 1
  %7 = bitcast i64** %6 to %"alloc::string::String"**
  store %"alloc::string::String"* %_22, %"alloc::string::String"** %7, align 8
  %8 = bitcast { i64*, i64* }* %1 to %"core::marker::PhantomData<&alloc::string::String>"*
  %9 = getelementptr inbounds { i64*, i64* }, { i64*, i64* }* %1, i32 0, i32 0
  %10 = load i64*, i64** %9, align 8, !nonnull !2
  %11 = getelementptr inbounds { i64*, i64* }, { i64*, i64* }* %1, i32 0, i32 1
  %12 = load i64*, i64** %11, align 8
  %13 = insertvalue { i64*, i64* } undef, i64* %10, 0
  %14 = insertvalue { i64*, i64* } %13, i64* %12, 1
  ret { i64*, i64* } %14
}

; core::slice::<impl [T]>::iter
; Function Attrs: inlinehint uwtable
define internal { i8*, i8* } @"_ZN4core5slice29_$LT$impl$u20$$u5b$T$u5d$$GT$4iter17hea03a9cd531258deE"([0 x i8]* noalias nonnull readonly align 1 %self.0, i64 %self.1) unnamed_addr #0 {
start:
  %0 = alloca i64, align 8
  %_23 = alloca %"core::marker::PhantomData<&u8>", align 1
  %end = alloca i8*, align 8
  %1 = alloca { i8*, i8* }, align 8
; call core::slice::<impl [T]>::as_ptr
  %ptr = call i8* @"_ZN4core5slice29_$LT$impl$u20$$u5b$T$u5d$$GT$6as_ptr17h07757a7056a7f581E"([0 x i8]* noalias nonnull readonly align 1 %self.0, i64 %self.1)
  br label %bb1

bb1:                                              ; preds = %start
; call core::ptr::const_ptr::<impl *const T>::is_null
  %_6 = call zeroext i1 @"_ZN4core3ptr9const_ptr33_$LT$impl$u20$$BP$const$u20$T$GT$7is_null17hd4de86c6c3b1d4f9E"(i8* %ptr)
  br label %bb2

bb2:                                              ; preds = %bb1
  %_5 = xor i1 %_6, true
  call void @llvm.assume(i1 %_5)
  br label %bb3

bb3:                                              ; preds = %bb2
  store i64 1, i64* %0, align 8
  %2 = load i64, i64* %0, align 8
  br label %bb4

bb4:                                              ; preds = %bb3
  %_9 = icmp eq i64 %2, 0
  br i1 %_9, label %bb6, label %bb5

bb5:                                              ; preds = %bb4
; call core::slice::<impl [T]>::len
  %_17 = call i64 @"_ZN4core5slice29_$LT$impl$u20$$u5b$T$u5d$$GT$3len17h77299b4caeb1f985E"([0 x i8]* noalias nonnull readonly align 1 %self.0, i64 %self.1)
  br label %bb9

bb6:                                              ; preds = %bb4
; call core::slice::<impl [T]>::len
  %_14 = call i64 @"_ZN4core5slice29_$LT$impl$u20$$u5b$T$u5d$$GT$3len17h77299b4caeb1f985E"([0 x i8]* noalias nonnull readonly align 1 %self.0, i64 %self.1)
  br label %bb7

bb7:                                              ; preds = %bb6
; call core::ptr::const_ptr::<impl *const T>::wrapping_add
  %_11 = call i8* @"_ZN4core3ptr9const_ptr33_$LT$impl$u20$$BP$const$u20$T$GT$12wrapping_add17hd95b929b27a61332E"(i8* %ptr, i64 %_14)
  br label %bb8

bb8:                                              ; preds = %bb7
  store i8* %_11, i8** %end, align 8
  br label %bb11

bb9:                                              ; preds = %bb5
; call core::ptr::const_ptr::<impl *const T>::add
  %3 = call i8* @"_ZN4core3ptr9const_ptr33_$LT$impl$u20$$BP$const$u20$T$GT$3add17h064c2b4c07a8aa1dE"(i8* %ptr, i64 %_17)
  store i8* %3, i8** %end, align 8
  br label %bb10

bb10:                                             ; preds = %bb9
  br label %bb11

bb11:                                             ; preds = %bb10, %bb8
; call core::ptr::non_null::NonNull<T>::new_unchecked
  %_19 = call nonnull i8* @"_ZN4core3ptr8non_null16NonNull$LT$T$GT$13new_unchecked17h41fc3ee18276955bE"(i8* %ptr)
  br label %bb12

bb12:                                             ; preds = %bb11
  %_22 = load i8*, i8** %end, align 8
  %4 = bitcast { i8*, i8* }* %1 to i8**
  store i8* %_19, i8** %4, align 8
  %5 = getelementptr inbounds { i8*, i8* }, { i8*, i8* }* %1, i32 0, i32 1
  store i8* %_22, i8** %5, align 8
  %6 = bitcast { i8*, i8* }* %1 to %"core::marker::PhantomData<&u8>"*
  %7 = getelementptr inbounds { i8*, i8* }, { i8*, i8* }* %1, i32 0, i32 0
  %8 = load i8*, i8** %7, align 8, !nonnull !2
  %9 = getelementptr inbounds { i8*, i8* }, { i8*, i8* }* %1, i32 0, i32 1
  %10 = load i8*, i8** %9, align 8
  %11 = insertvalue { i8*, i8* } undef, i8* %8, 0
  %12 = insertvalue { i8*, i8* } %11, i8* %10, 1
  ret { i8*, i8* } %12
}

; core::slice::<impl [T]>::as_ptr
; Function Attrs: inlinehint uwtable
define internal i8* @"_ZN4core5slice29_$LT$impl$u20$$u5b$T$u5d$$GT$6as_ptr17h07757a7056a7f581E"([0 x i8]* noalias nonnull readonly align 1 %self.0, i64 %self.1) unnamed_addr #0 {
start:
  %0 = bitcast [0 x i8]* %self.0 to i8*
  ret i8* %0
}

; core::slice::<impl [T]>::as_ptr
; Function Attrs: inlinehint uwtable
define internal %"alloc::string::String"* @"_ZN4core5slice29_$LT$impl$u20$$u5b$T$u5d$$GT$6as_ptr17he212850fc6d436d0E"([0 x %"alloc::string::String"]* noalias nonnull readonly align 8 %self.0, i64 %self.1) unnamed_addr #0 {
start:
  %0 = bitcast [0 x %"alloc::string::String"]* %self.0 to %"alloc::string::String"*
  ret %"alloc::string::String"* %0
}

; core::slice::<impl core::ops::index::IndexMut<I> for [T]>::index_mut
; Function Attrs: inlinehint uwtable
define internal { [0 x i8]*, i64 } @"_ZN4core5slice77_$LT$impl$u20$core..ops..index..IndexMut$LT$I$GT$$u20$for$u20$$u5b$T$u5d$$GT$9index_mut17h8b6f65db41aa7f21E"([0 x i8]* nonnull align 1 %self.0, i64 %self.1, %"core::panic::Location"* noalias readonly align 8 dereferenceable(24)) unnamed_addr #0 {
start:
; call <core::ops::range::RangeFull as core::slice::SliceIndex<[T]>>::index_mut
  %1 = call { [0 x i8]*, i64 } @"_ZN90_$LT$core..ops..range..RangeFull$u20$as$u20$core..slice..SliceIndex$LT$$u5b$T$u5d$$GT$$GT$9index_mut17h5b1fe1684a145970E"([0 x i8]* nonnull align 1 %self.0, i64 %self.1, %"core::panic::Location"* noalias readonly align 8 dereferenceable(24) %0)
  %_4.0 = extractvalue { [0 x i8]*, i64 } %1, 0
  %_4.1 = extractvalue { [0 x i8]*, i64 } %1, 1
  br label %bb1

bb1:                                              ; preds = %start
  %2 = insertvalue { [0 x i8]*, i64 } undef, [0 x i8]* %_4.0, 0
  %3 = insertvalue { [0 x i8]*, i64 } %2, i64 %_4.1, 1
  ret { [0 x i8]*, i64 } %3
}

; core::slice::<impl core::ops::index::IndexMut<I> for [T]>::index_mut
; Function Attrs: inlinehint uwtable
define internal { [0 x %"alloc::string::String"]*, i64 } @"_ZN4core5slice77_$LT$impl$u20$core..ops..index..IndexMut$LT$I$GT$$u20$for$u20$$u5b$T$u5d$$GT$9index_mut17ha7cb882113a811abE"([0 x %"alloc::string::String"]* nonnull align 8 %self.0, i64 %self.1, %"core::panic::Location"* noalias readonly align 8 dereferenceable(24)) unnamed_addr #0 {
start:
; call <core::ops::range::RangeFull as core::slice::SliceIndex<[T]>>::index_mut
  %1 = call { [0 x %"alloc::string::String"]*, i64 } @"_ZN90_$LT$core..ops..range..RangeFull$u20$as$u20$core..slice..SliceIndex$LT$$u5b$T$u5d$$GT$$GT$9index_mut17h2a128423a73eed8fE"([0 x %"alloc::string::String"]* nonnull align 8 %self.0, i64 %self.1, %"core::panic::Location"* noalias readonly align 8 dereferenceable(24) %0)
  %_4.0 = extractvalue { [0 x %"alloc::string::String"]*, i64 } %1, 0
  %_4.1 = extractvalue { [0 x %"alloc::string::String"]*, i64 } %1, 1
  br label %bb1

bb1:                                              ; preds = %start
  %2 = insertvalue { [0 x %"alloc::string::String"]*, i64 } undef, [0 x %"alloc::string::String"]* %_4.0, 0
  %3 = insertvalue { [0 x %"alloc::string::String"]*, i64 } %2, i64 %_4.1, 1
  ret { [0 x %"alloc::string::String"]*, i64 } %3
}

; core::option::Option<T>::ok_or
; Function Attrs: inlinehint uwtable
define internal { i64, i64 } @"_ZN4core6option15Option$LT$T$GT$5ok_or17h109632ac04bdd991E"(i64, i64) unnamed_addr #0 personality i32 (i32, i32, i64, %"unwind::libunwind::_Unwind_Exception"*, %"unwind::libunwind::_Unwind_Context"*)* @rust_eh_personality {
start:
  %2 = alloca { i8*, i32 }, align 8
  %_7 = alloca i8, align 1
  %3 = alloca { i64, i64 }, align 8
  %self = alloca { i64, i64 }, align 8
  %4 = getelementptr inbounds { i64, i64 }, { i64, i64 }* %self, i32 0, i32 0
  store i64 %0, i64* %4, align 8
  %5 = getelementptr inbounds { i64, i64 }, { i64, i64 }* %self, i32 0, i32 1
  store i64 %1, i64* %5, align 8
  store i8 0, i8* %_7, align 1
  store i8 1, i8* %_7, align 1
  %6 = bitcast { i64, i64 }* %self to i64*
  %_3 = load i64, i64* %6, align 8, !range !6
  switch i64 %_3, label %bb2 [
    i64 0, label %bb1
    i64 1, label %bb3
  ]

bb1:                                              ; preds = %start
  store i8 0, i8* %_7, align 1
  %7 = bitcast { i64, i64 }* %3 to %"core::result::Result<usize, core::alloc::layout::LayoutErr>::Err"*
  %8 = getelementptr inbounds %"core::result::Result<usize, core::alloc::layout::LayoutErr>::Err", %"core::result::Result<usize, core::alloc::layout::LayoutErr>::Err"* %7, i32 0, i32 1
  %9 = bitcast { i64, i64 }* %3 to i64*
  store i64 1, i64* %9, align 8
  br label %bb5

bb2:                                              ; preds = %start
  unreachable

bb3:                                              ; preds = %start
  %10 = bitcast { i64, i64 }* %self to %"core::option::Option<usize>::Some"*
  %11 = getelementptr inbounds %"core::option::Option<usize>::Some", %"core::option::Option<usize>::Some"* %10, i32 0, i32 1
  %v = load i64, i64* %11, align 8
  %12 = bitcast { i64, i64 }* %3 to %"core::result::Result<usize, core::alloc::layout::LayoutErr>::Ok"*
  %13 = getelementptr inbounds %"core::result::Result<usize, core::alloc::layout::LayoutErr>::Ok", %"core::result::Result<usize, core::alloc::layout::LayoutErr>::Ok"* %12, i32 0, i32 1
  store i64 %v, i64* %13, align 8
  %14 = bitcast { i64, i64 }* %3 to i64*
  store i64 0, i64* %14, align 8
  br label %bb5

bb4:                                              ; No predecessors!
  %15 = bitcast { i8*, i32 }* %2 to i8**
  %16 = load i8*, i8** %15, align 8
  %17 = getelementptr inbounds { i8*, i32 }, { i8*, i32 }* %2, i32 0, i32 1
  %18 = load i32, i32* %17, align 8
  %19 = insertvalue { i8*, i32 } undef, i8* %16, 0
  %20 = insertvalue { i8*, i32 } %19, i32 %18, 1
  resume { i8*, i32 } %20

bb5:                                              ; preds = %bb1, %bb3
  %21 = load i8, i8* %_7, align 1, !range !4
  %22 = trunc i8 %21 to i1
  br i1 %22, label %bb7, label %bb6

bb6:                                              ; preds = %bb7, %bb5
  %23 = getelementptr inbounds { i64, i64 }, { i64, i64 }* %3, i32 0, i32 0
  %24 = load i64, i64* %23, align 8, !range !6
  %25 = getelementptr inbounds { i64, i64 }, { i64, i64 }* %3, i32 0, i32 1
  %26 = load i64, i64* %25, align 8
  %27 = insertvalue { i64, i64 } undef, i64 %24, 0
  %28 = insertvalue { i64, i64 } %27, i64 %26, 1
  ret { i64, i64 } %28

bb7:                                              ; preds = %bb5
  store i8 0, i8* %_7, align 1
  br label %bb6
}

; core::option::Option<T>::ok_or
; Function Attrs: inlinehint uwtable
define internal i8* @"_ZN4core6option15Option$LT$T$GT$5ok_or17hb91dcaa68beaef80E"(i8*) unnamed_addr #0 personality i32 (i32, i32, i64, %"unwind::libunwind::_Unwind_Exception"*, %"unwind::libunwind::_Unwind_Context"*)* @rust_eh_personality {
start:
  %1 = alloca { i8*, i32 }, align 8
  %_7 = alloca i8, align 1
  %2 = alloca i8*, align 8
  %self = alloca i8*, align 8
  store i8* %0, i8** %self, align 8
  store i8 0, i8* %_7, align 1
  store i8 1, i8* %_7, align 1
  %3 = bitcast i8** %self to {}**
  %4 = load {}*, {}** %3, align 8
  %5 = icmp ule {}* %4, null
  %_3 = select i1 %5, i64 0, i64 1
  switch i64 %_3, label %bb2 [
    i64 0, label %bb1
    i64 1, label %bb3
  ]

bb1:                                              ; preds = %start
  store i8 0, i8* %_7, align 1
  %6 = bitcast i8** %2 to %"core::result::Result<core::ptr::non_null::NonNull<u8>, core::alloc::AllocErr>::Err"*
  %7 = bitcast %"core::result::Result<core::ptr::non_null::NonNull<u8>, core::alloc::AllocErr>::Err"* %6 to %"core::alloc::AllocErr"*
  %8 = bitcast i8** %2 to {}**
  store {}* null, {}** %8, align 8
  br label %bb5

bb2:                                              ; preds = %start
  unreachable

bb3:                                              ; preds = %start
  %v = load i8*, i8** %self, align 8, !nonnull !2
  store i8* %v, i8** %2, align 8
  br label %bb5

bb4:                                              ; No predecessors!
  %9 = bitcast { i8*, i32 }* %1 to i8**
  %10 = load i8*, i8** %9, align 8
  %11 = getelementptr inbounds { i8*, i32 }, { i8*, i32 }* %1, i32 0, i32 1
  %12 = load i32, i32* %11, align 8
  %13 = insertvalue { i8*, i32 } undef, i8* %10, 0
  %14 = insertvalue { i8*, i32 } %13, i32 %12, 1
  resume { i8*, i32 } %14

bb5:                                              ; preds = %bb1, %bb3
  %15 = load i8, i8* %_7, align 1, !range !4
  %16 = trunc i8 %15 to i1
  br i1 %16, label %bb7, label %bb6

bb6:                                              ; preds = %bb7, %bb5
  %17 = load i8*, i8** %2, align 8
  ret i8* %17

bb7:                                              ; preds = %bb5
  store i8 0, i8* %_7, align 1
  br label %bb6
}

; core::option::Option<T>::ok_or
; Function Attrs: inlinehint uwtable
define internal { i64, i64 } @"_ZN4core6option15Option$LT$T$GT$5ok_or17he75fd77ef64b235bE"(i64, i64) unnamed_addr #0 personality i32 (i32, i32, i64, %"unwind::libunwind::_Unwind_Exception"*, %"unwind::libunwind::_Unwind_Context"*)* @rust_eh_personality {
start:
  %2 = alloca { i8*, i32 }, align 8
  %_7 = alloca i8, align 1
  %3 = alloca { i64, i64 }, align 8
  %self = alloca { i64, i64 }, align 8
  %4 = getelementptr inbounds { i64, i64 }, { i64, i64 }* %self, i32 0, i32 0
  store i64 %0, i64* %4, align 8
  %5 = getelementptr inbounds { i64, i64 }, { i64, i64 }* %self, i32 0, i32 1
  store i64 %1, i64* %5, align 8
  store i8 0, i8* %_7, align 1
  store i8 1, i8* %_7, align 1
  %6 = bitcast { i64, i64 }* %self to i64*
  %_3 = load i64, i64* %6, align 8, !range !6
  switch i64 %_3, label %bb2 [
    i64 0, label %bb1
    i64 1, label %bb3
  ]

bb1:                                              ; preds = %start
  store i8 0, i8* %_7, align 1
  %7 = bitcast { i64, i64 }* %3 to %"core::result::Result<usize, core::option::NoneError>::Err"*
  %8 = getelementptr inbounds %"core::result::Result<usize, core::option::NoneError>::Err", %"core::result::Result<usize, core::option::NoneError>::Err"* %7, i32 0, i32 1
  %9 = bitcast { i64, i64 }* %3 to i64*
  store i64 1, i64* %9, align 8
  br label %bb5

bb2:                                              ; preds = %start
  unreachable

bb3:                                              ; preds = %start
  %10 = bitcast { i64, i64 }* %self to %"core::option::Option<usize>::Some"*
  %11 = getelementptr inbounds %"core::option::Option<usize>::Some", %"core::option::Option<usize>::Some"* %10, i32 0, i32 1
  %v = load i64, i64* %11, align 8
  %12 = bitcast { i64, i64 }* %3 to %"core::result::Result<usize, core::option::NoneError>::Ok"*
  %13 = getelementptr inbounds %"core::result::Result<usize, core::option::NoneError>::Ok", %"core::result::Result<usize, core::option::NoneError>::Ok"* %12, i32 0, i32 1
  store i64 %v, i64* %13, align 8
  %14 = bitcast { i64, i64 }* %3 to i64*
  store i64 0, i64* %14, align 8
  br label %bb5

bb4:                                              ; No predecessors!
  %15 = bitcast { i8*, i32 }* %2 to i8**
  %16 = load i8*, i8** %15, align 8
  %17 = getelementptr inbounds { i8*, i32 }, { i8*, i32 }* %2, i32 0, i32 1
  %18 = load i32, i32* %17, align 8
  %19 = insertvalue { i8*, i32 } undef, i8* %16, 0
  %20 = insertvalue { i8*, i32 } %19, i32 %18, 1
  resume { i8*, i32 } %20

bb5:                                              ; preds = %bb1, %bb3
  %21 = load i8, i8* %_7, align 1, !range !4
  %22 = trunc i8 %21 to i1
  br i1 %22, label %bb7, label %bb6

bb6:                                              ; preds = %bb7, %bb5
  %23 = getelementptr inbounds { i64, i64 }, { i64, i64 }* %3, i32 0, i32 0
  %24 = load i64, i64* %23, align 8, !range !6
  %25 = getelementptr inbounds { i64, i64 }, { i64, i64 }* %3, i32 0, i32 1
  %26 = load i64, i64* %25, align 8
  %27 = insertvalue { i64, i64 } undef, i64 %24, 0
  %28 = insertvalue { i64, i64 } %27, i64 %26, 1
  ret { i64, i64 } %28

bb7:                                              ; preds = %bb5
  store i8 0, i8* %_7, align 1
  br label %bb6
}

; core::option::Option<T>::ok_or
; Function Attrs: inlinehint uwtable
define internal void @"_ZN4core6option15Option$LT$T$GT$5ok_or17hed5698a112f9742bE"(%"core::result::Result<usize, alloc::collections::TryReserveError>"* noalias nocapture sret dereferenceable(24), i64, i64, i64 %err.0, i64 %err.1) unnamed_addr #0 personality i32 (i32, i32, i64, %"unwind::libunwind::_Unwind_Exception"*, %"unwind::libunwind::_Unwind_Context"*)* @rust_eh_personality {
start:
  %3 = alloca { i8*, i32 }, align 8
  %_7 = alloca i8, align 1
  %self = alloca { i64, i64 }, align 8
  %4 = getelementptr inbounds { i64, i64 }, { i64, i64 }* %self, i32 0, i32 0
  store i64 %1, i64* %4, align 8
  %5 = getelementptr inbounds { i64, i64 }, { i64, i64 }* %self, i32 0, i32 1
  store i64 %2, i64* %5, align 8
  store i8 0, i8* %_7, align 1
  store i8 1, i8* %_7, align 1
  %6 = bitcast { i64, i64 }* %self to i64*
  %_3 = load i64, i64* %6, align 8, !range !6
  switch i64 %_3, label %bb2 [
    i64 0, label %bb1
    i64 1, label %bb3
  ]

bb1:                                              ; preds = %start
  store i8 0, i8* %_7, align 1
  %7 = bitcast %"core::result::Result<usize, alloc::collections::TryReserveError>"* %0 to %"core::result::Result<usize, alloc::collections::TryReserveError>::Err"*
  %8 = getelementptr inbounds %"core::result::Result<usize, alloc::collections::TryReserveError>::Err", %"core::result::Result<usize, alloc::collections::TryReserveError>::Err"* %7, i32 0, i32 1
  %9 = getelementptr inbounds { i64, i64 }, { i64, i64 }* %8, i32 0, i32 0
  store i64 %err.0, i64* %9, align 8
  %10 = getelementptr inbounds { i64, i64 }, { i64, i64 }* %8, i32 0, i32 1
  store i64 %err.1, i64* %10, align 8
  %11 = bitcast %"core::result::Result<usize, alloc::collections::TryReserveError>"* %0 to i64*
  store i64 1, i64* %11, align 8
  br label %bb5

bb2:                                              ; preds = %start
  unreachable

bb3:                                              ; preds = %start
  %12 = bitcast { i64, i64 }* %self to %"core::option::Option<usize>::Some"*
  %13 = getelementptr inbounds %"core::option::Option<usize>::Some", %"core::option::Option<usize>::Some"* %12, i32 0, i32 1
  %v = load i64, i64* %13, align 8
  %14 = bitcast %"core::result::Result<usize, alloc::collections::TryReserveError>"* %0 to %"core::result::Result<usize, alloc::collections::TryReserveError>::Ok"*
  %15 = getelementptr inbounds %"core::result::Result<usize, alloc::collections::TryReserveError>::Ok", %"core::result::Result<usize, alloc::collections::TryReserveError>::Ok"* %14, i32 0, i32 1
  store i64 %v, i64* %15, align 8
  %16 = bitcast %"core::result::Result<usize, alloc::collections::TryReserveError>"* %0 to i64*
  store i64 0, i64* %16, align 8
  br label %bb5

bb4:                                              ; No predecessors!
  %17 = bitcast { i8*, i32 }* %3 to i8**
  %18 = load i8*, i8** %17, align 8
  %19 = getelementptr inbounds { i8*, i32 }, { i8*, i32 }* %3, i32 0, i32 1
  %20 = load i32, i32* %19, align 8
  %21 = insertvalue { i8*, i32 } undef, i8* %18, 0
  %22 = insertvalue { i8*, i32 } %21, i32 %20, 1
  resume { i8*, i32 } %22

bb5:                                              ; preds = %bb1, %bb3
  %23 = load i8, i8* %_7, align 1, !range !4
  %24 = trunc i8 %23 to i1
  br i1 %24, label %bb7, label %bb6

bb6:                                              ; preds = %bb7, %bb5
  ret void

bb7:                                              ; preds = %bb5
  store i8 0, i8* %_7, align 1
  br label %bb6
}

; core::option::Option<T>::expect
; Function Attrs: inlinehint uwtable
define internal i64 @"_ZN4core6option15Option$LT$T$GT$6expect17hd2b533468812d1e3E"(i64, i64, [0 x i8]* noalias nonnull readonly align 1 %msg.0, i64 %msg.1, %"core::panic::Location"* noalias readonly align 8 dereferenceable(24)) unnamed_addr #0 personality i32 (i32, i32, i64, %"unwind::libunwind::_Unwind_Exception"*, %"unwind::libunwind::_Unwind_Context"*)* @rust_eh_personality {
start:
  %3 = alloca { i8*, i32 }, align 8
  %self = alloca { i64, i64 }, align 8
  %4 = getelementptr inbounds { i64, i64 }, { i64, i64 }* %self, i32 0, i32 0
  store i64 %0, i64* %4, align 8
  %5 = getelementptr inbounds { i64, i64 }, { i64, i64 }* %self, i32 0, i32 1
  store i64 %1, i64* %5, align 8
  %6 = bitcast { i64, i64 }* %self to i64*
  %_3 = load i64, i64* %6, align 8, !range !6
  switch i64 %_3, label %bb3 [
    i64 0, label %bb2
    i64 1, label %bb4
  ]

bb1:                                              ; preds = %bb5
  %7 = bitcast { i8*, i32 }* %3 to i8**
  %8 = load i8*, i8** %7, align 8
  %9 = getelementptr inbounds { i8*, i32 }, { i8*, i32 }* %3, i32 0, i32 1
  %10 = load i32, i32* %9, align 8
  %11 = insertvalue { i8*, i32 } undef, i8* %8, 0
  %12 = insertvalue { i8*, i32 } %11, i32 %10, 1
  resume { i8*, i32 } %12

bb2:                                              ; preds = %start
; invoke core::option::expect_failed
  invoke void @_ZN4core6option13expect_failed17h9aa135e9585b00bbE([0 x i8]* noalias nonnull readonly align 1 %msg.0, i64 %msg.1, %"core::panic::Location"* noalias readonly align 8 dereferenceable(24) %2)
          to label %unreachable unwind label %cleanup

bb3:                                              ; preds = %start
  unreachable

bb4:                                              ; preds = %start
  %13 = bitcast { i64, i64 }* %self to %"core::option::Option<usize>::Some"*
  %14 = getelementptr inbounds %"core::option::Option<usize>::Some", %"core::option::Option<usize>::Some"* %13, i32 0, i32 1
  %val = load i64, i64* %14, align 8
  ret i64 %val

bb5:                                              ; preds = %cleanup
  br label %bb1

unreachable:                                      ; preds = %bb2
  unreachable

cleanup:                                          ; preds = %bb2
  %15 = landingpad { i8*, i32 }
          cleanup
  %16 = extractvalue { i8*, i32 } %15, 0
  %17 = extractvalue { i8*, i32 } %15, 1
  %18 = getelementptr inbounds { i8*, i32 }, { i8*, i32 }* %3, i32 0, i32 0
  store i8* %16, i8** %18, align 8
  %19 = getelementptr inbounds { i8*, i32 }, { i8*, i32 }* %3, i32 0, i32 1
  store i32 %17, i32* %19, align 8
  br label %bb5
}

; core::option::Option<T>::and_then
; Function Attrs: inlinehint uwtable
define internal { i64, i64 } @"_ZN4core6option15Option$LT$T$GT$8and_then17h014fd268d82cd009E"(i64, i64, i64* noalias readonly align 8 dereferenceable(16) %f) unnamed_addr #0 personality i32 (i32, i32, i64, %"unwind::libunwind::_Unwind_Exception"*, %"unwind::libunwind::_Unwind_Context"*)* @rust_eh_personality {
start:
  %2 = alloca { i8*, i32 }, align 8
  %_8 = alloca i8, align 1
  %_6 = alloca i64, align 8
  %3 = alloca { i64, i64 }, align 8
  %self = alloca { i64, i64 }, align 8
  %4 = getelementptr inbounds { i64, i64 }, { i64, i64 }* %self, i32 0, i32 0
  store i64 %0, i64* %4, align 8
  %5 = getelementptr inbounds { i64, i64 }, { i64, i64 }* %self, i32 0, i32 1
  store i64 %1, i64* %5, align 8
  store i8 0, i8* %_8, align 1
  store i8 1, i8* %_8, align 1
  %6 = bitcast { i64, i64 }* %self to i64*
  %_3 = load i64, i64* %6, align 8, !range !6
  switch i64 %_3, label %bb2 [
    i64 0, label %bb1
    i64 1, label %bb3
  ]

bb1:                                              ; preds = %start
  %7 = bitcast { i64, i64 }* %3 to i64*
  store i64 0, i64* %7, align 8
  br label %bb8

bb2:                                              ; preds = %start
  unreachable

bb3:                                              ; preds = %start
  %8 = bitcast { i64, i64 }* %self to %"core::option::Option<usize>::Some"*
  %9 = getelementptr inbounds %"core::option::Option<usize>::Some", %"core::option::Option<usize>::Some"* %8, i32 0, i32 1
  %x = load i64, i64* %9, align 8
  store i8 0, i8* %_8, align 1
  store i64 %x, i64* %_6, align 8
  %10 = load i64, i64* %_6, align 8
; invoke alloc::str::join_generic_copy::{{closure}}
  %11 = invoke { i64, i64 } @"_ZN5alloc3str17join_generic_copy28_$u7b$$u7b$closure$u7d$$u7d$17hc22ce26c83e38ac0E"(i64* noalias readonly align 8 dereferenceable(16) %f, i64 %10)
          to label %bb4 unwind label %cleanup

bb4:                                              ; preds = %bb3
  store { i64, i64 } %11, { i64, i64 }* %3, align 8
  br label %bb8

bb5:                                              ; preds = %bb7, %bb8
  %12 = getelementptr inbounds { i64, i64 }, { i64, i64 }* %3, i32 0, i32 0
  %13 = load i64, i64* %12, align 8, !range !6
  %14 = getelementptr inbounds { i64, i64 }, { i64, i64 }* %3, i32 0, i32 1
  %15 = load i64, i64* %14, align 8
  %16 = insertvalue { i64, i64 } undef, i64 %13, 0
  %17 = insertvalue { i64, i64 } %16, i64 %15, 1
  ret { i64, i64 } %17

bb6:                                              ; preds = %cleanup
  %18 = bitcast { i8*, i32 }* %2 to i8**
  %19 = load i8*, i8** %18, align 8
  %20 = getelementptr inbounds { i8*, i32 }, { i8*, i32 }* %2, i32 0, i32 1
  %21 = load i32, i32* %20, align 8
  %22 = insertvalue { i8*, i32 } undef, i8* %19, 0
  %23 = insertvalue { i8*, i32 } %22, i32 %21, 1
  resume { i8*, i32 } %23

bb7:                                              ; preds = %bb8
  store i8 0, i8* %_8, align 1
  br label %bb5

bb8:                                              ; preds = %bb1, %bb4
  %24 = load i8, i8* %_8, align 1, !range !4
  %25 = trunc i8 %24 to i1
  br i1 %25, label %bb7, label %bb5

cleanup:                                          ; preds = %bb3
  %26 = landingpad { i8*, i32 }
          cleanup
  %27 = extractvalue { i8*, i32 } %26, 0
  %28 = extractvalue { i8*, i32 } %26, 1
  %29 = getelementptr inbounds { i8*, i32 }, { i8*, i32 }* %2, i32 0, i32 0
  store i8* %27, i8** %29, align 8
  %30 = getelementptr inbounds { i8*, i32 }, { i8*, i32 }* %2, i32 0, i32 1
  store i32 %28, i32* %30, align 8
  br label %bb6
}

; core::result::Result<T,E>::unwrap_or_else
; Function Attrs: inlinehint uwtable
define internal { i8*, i64 } @"_ZN4core6result19Result$LT$T$C$E$GT$14unwrap_or_else17h5661b08d1be7ae94E"(i8*, i64, i64* noalias readonly align 8 dereferenceable(16) %op) unnamed_addr #0 personality i32 (i32, i32, i64, %"unwind::libunwind::_Unwind_Exception"*, %"unwind::libunwind::_Unwind_Context"*)* @rust_eh_personality {
start:
  %2 = alloca { i8*, i32 }, align 8
  %_9 = alloca i8, align 1
  %_7 = alloca { [0 x i8], %"core::alloc::AllocErr", [0 x i8] }, align 1
  %3 = alloca { i8*, i64 }, align 8
  %self = alloca { i8*, i64 }, align 8
  %4 = getelementptr inbounds { i8*, i64 }, { i8*, i64 }* %self, i32 0, i32 0
  store i8* %0, i8** %4, align 8
  %5 = getelementptr inbounds { i8*, i64 }, { i8*, i64 }* %self, i32 0, i32 1
  store i64 %1, i64* %5, align 8
  store i8 0, i8* %_9, align 1
  store i8 1, i8* %_9, align 1
  %6 = bitcast { i8*, i64 }* %self to {}**
  %7 = load {}*, {}** %6, align 8
  %8 = icmp ule {}* %7, null
  %_3 = select i1 %8, i64 1, i64 0
  switch i64 %_3, label %bb2 [
    i64 0, label %bb3
    i64 1, label %bb1
  ]

bb1:                                              ; preds = %start
  store i8 0, i8* %_9, align 1
  %9 = bitcast { [0 x i8], %"core::alloc::AllocErr", [0 x i8] }* %_7 to %"core::alloc::AllocErr"*
; invoke alloc::raw_vec::RawVec<T,A>::allocate_in::{{closure}}
  %10 = invoke { i8*, i64 } @"_ZN5alloc7raw_vec19RawVec$LT$T$C$A$GT$11allocate_in28_$u7b$$u7b$closure$u7d$$u7d$17h3e3a4293a6be52e5E"(i64* noalias readonly align 8 dereferenceable(16) %op)
          to label %bb4 unwind label %cleanup

bb2:                                              ; preds = %start
  unreachable

bb3:                                              ; preds = %start
  %11 = getelementptr inbounds { i8*, i64 }, { i8*, i64 }* %self, i32 0, i32 0
  %t.0 = load i8*, i8** %11, align 8, !nonnull !2
  %12 = getelementptr inbounds { i8*, i64 }, { i8*, i64 }* %self, i32 0, i32 1
  %t.1 = load i64, i64* %12, align 8
  %13 = getelementptr inbounds { i8*, i64 }, { i8*, i64 }* %3, i32 0, i32 0
  store i8* %t.0, i8** %13, align 8
  %14 = getelementptr inbounds { i8*, i64 }, { i8*, i64 }* %3, i32 0, i32 1
  store i64 %t.1, i64* %14, align 8
  br label %bb5

bb4:                                              ; preds = %bb1
  store { i8*, i64 } %10, { i8*, i64 }* %3, align 8
  br label %bb5

bb5:                                              ; preds = %bb3, %bb4
  %15 = load i8, i8* %_9, align 1, !range !4
  %16 = trunc i8 %15 to i1
  br i1 %16, label %bb8, label %bb6

bb6:                                              ; preds = %bb8, %bb5
  %17 = getelementptr inbounds { i8*, i64 }, { i8*, i64 }* %3, i32 0, i32 0
  %18 = load i8*, i8** %17, align 8, !nonnull !2
  %19 = getelementptr inbounds { i8*, i64 }, { i8*, i64 }* %3, i32 0, i32 1
  %20 = load i64, i64* %19, align 8
  %21 = insertvalue { i8*, i64 } undef, i8* %18, 0
  %22 = insertvalue { i8*, i64 } %21, i64 %20, 1
  ret { i8*, i64 } %22

bb7:                                              ; preds = %cleanup
  %23 = bitcast { i8*, i32 }* %2 to i8**
  %24 = load i8*, i8** %23, align 8
  %25 = getelementptr inbounds { i8*, i32 }, { i8*, i32 }* %2, i32 0, i32 1
  %26 = load i32, i32* %25, align 8
  %27 = insertvalue { i8*, i32 } undef, i8* %24, 0
  %28 = insertvalue { i8*, i32 } %27, i32 %26, 1
  resume { i8*, i32 } %28

bb8:                                              ; preds = %bb5
  store i8 0, i8* %_9, align 1
  br label %bb6

cleanup:                                          ; preds = %bb1
  %29 = landingpad { i8*, i32 }
          cleanup
  %30 = extractvalue { i8*, i32 } %29, 0
  %31 = extractvalue { i8*, i32 } %29, 1
  %32 = getelementptr inbounds { i8*, i32 }, { i8*, i32 }* %2, i32 0, i32 0
  store i8* %30, i8** %32, align 8
  %33 = getelementptr inbounds { i8*, i32 }, { i8*, i32 }* %2, i32 0, i32 1
  store i32 %31, i32* %33, align 8
  br label %bb7
}

; core::result::Result<T,E>::unwrap_or_else
; Function Attrs: inlinehint uwtable
define internal { i64, i64 } @"_ZN4core6result19Result$LT$T$C$E$GT$14unwrap_or_else17ha3e15e77e4ec393bE"(i64, i64) unnamed_addr #0 personality i32 (i32, i32, i64, %"unwind::libunwind::_Unwind_Exception"*, %"unwind::libunwind::_Unwind_Context"*)* @rust_eh_personality {
start:
  %2 = alloca { i8*, i32 }, align 8
  %_9 = alloca i8, align 1
  %_7 = alloca { [0 x i8], %"core::alloc::layout::LayoutErr", [0 x i8] }, align 1
  %3 = alloca { i64, i64 }, align 8
  %self = alloca { i64, i64 }, align 8
  %4 = getelementptr inbounds { i64, i64 }, { i64, i64 }* %self, i32 0, i32 0
  store i64 %0, i64* %4, align 8
  %5 = getelementptr inbounds { i64, i64 }, { i64, i64 }* %self, i32 0, i32 1
  store i64 %1, i64* %5, align 8
  store i8 0, i8* %_9, align 1
  store i8 1, i8* %_9, align 1
  %6 = getelementptr inbounds { i64, i64 }, { i64, i64 }* %self, i32 0, i32 1
  %7 = load i64, i64* %6, align 8
  %8 = icmp ule i64 %7, 0
  %_3 = select i1 %8, i64 1, i64 0
  switch i64 %_3, label %bb2 [
    i64 0, label %bb3
    i64 1, label %bb1
  ]

bb1:                                              ; preds = %start
  store i8 0, i8* %_9, align 1
  %9 = bitcast { [0 x i8], %"core::alloc::layout::LayoutErr", [0 x i8] }* %_7 to %"core::alloc::layout::LayoutErr"*
; invoke alloc::raw_vec::RawVec<T,A>::allocate_in::{{closure}}
  %10 = invoke { i64, i64 } @"_ZN5alloc7raw_vec19RawVec$LT$T$C$A$GT$11allocate_in28_$u7b$$u7b$closure$u7d$$u7d$17he76ed57d2cc14a9eE"()
          to label %bb4 unwind label %cleanup

bb2:                                              ; preds = %start
  unreachable

bb3:                                              ; preds = %start
  %11 = getelementptr inbounds { i64, i64 }, { i64, i64 }* %self, i32 0, i32 0
  %t.0 = load i64, i64* %11, align 8
  %12 = getelementptr inbounds { i64, i64 }, { i64, i64 }* %self, i32 0, i32 1
  %t.1 = load i64, i64* %12, align 8, !range !5
  %13 = getelementptr inbounds { i64, i64 }, { i64, i64 }* %3, i32 0, i32 0
  store i64 %t.0, i64* %13, align 8
  %14 = getelementptr inbounds { i64, i64 }, { i64, i64 }* %3, i32 0, i32 1
  store i64 %t.1, i64* %14, align 8
  br label %bb5

bb4:                                              ; preds = %bb1
  store { i64, i64 } %10, { i64, i64 }* %3, align 8
  br label %bb5

bb5:                                              ; preds = %bb3, %bb4
  %15 = load i8, i8* %_9, align 1, !range !4
  %16 = trunc i8 %15 to i1
  br i1 %16, label %bb8, label %bb6

bb6:                                              ; preds = %bb8, %bb5
  %17 = getelementptr inbounds { i64, i64 }, { i64, i64 }* %3, i32 0, i32 0
  %18 = load i64, i64* %17, align 8
  %19 = getelementptr inbounds { i64, i64 }, { i64, i64 }* %3, i32 0, i32 1
  %20 = load i64, i64* %19, align 8, !range !5
  %21 = insertvalue { i64, i64 } undef, i64 %18, 0
  %22 = insertvalue { i64, i64 } %21, i64 %20, 1
  ret { i64, i64 } %22

bb7:                                              ; preds = %cleanup
  %23 = bitcast { i8*, i32 }* %2 to i8**
  %24 = load i8*, i8** %23, align 8
  %25 = getelementptr inbounds { i8*, i32 }, { i8*, i32 }* %2, i32 0, i32 1
  %26 = load i32, i32* %25, align 8
  %27 = insertvalue { i8*, i32 } undef, i8* %24, 0
  %28 = insertvalue { i8*, i32 } %27, i32 %26, 1
  resume { i8*, i32 } %28

bb8:                                              ; preds = %bb5
  store i8 0, i8* %_9, align 1
  br label %bb6

cleanup:                                          ; preds = %bb1
  %29 = landingpad { i8*, i32 }
          cleanup
  %30 = extractvalue { i8*, i32 } %29, 0
  %31 = extractvalue { i8*, i32 } %29, 1
  %32 = getelementptr inbounds { i8*, i32 }, { i8*, i32 }* %2, i32 0, i32 0
  store i8* %30, i8** %32, align 8
  %33 = getelementptr inbounds { i8*, i32 }, { i8*, i32 }* %2, i32 0, i32 1
  store i32 %31, i32* %33, align 8
  br label %bb7
}

; core::result::Result<T,E>::unwrap_or_else
; Function Attrs: inlinehint uwtable
define internal void @"_ZN4core6result19Result$LT$T$C$E$GT$14unwrap_or_else17ha7c4eaff2e5bd60eE"(%"core::result::Result<(), alloc::collections::TryReserveError>"* noalias nocapture dereferenceable(24) %self) unnamed_addr #0 personality i32 (i32, i32, i64, %"unwind::libunwind::_Unwind_Exception"*, %"unwind::libunwind::_Unwind_Context"*)* @rust_eh_personality {
start:
  %0 = alloca { i8*, i32 }, align 8
  %_9 = alloca i8, align 1
  %_7 = alloca { i64, i64 }, align 8
  %1 = alloca {}, align 1
  store i8 0, i8* %_9, align 1
  store i8 1, i8* %_9, align 1
  %2 = bitcast %"core::result::Result<(), alloc::collections::TryReserveError>"* %self to i64*
  %_3 = load i64, i64* %2, align 8, !range !6
  switch i64 %_3, label %bb2 [
    i64 0, label %bb3
    i64 1, label %bb1
  ]

bb1:                                              ; preds = %start
  %3 = bitcast %"core::result::Result<(), alloc::collections::TryReserveError>"* %self to %"core::result::Result<(), alloc::collections::TryReserveError>::Err"*
  %4 = getelementptr inbounds %"core::result::Result<(), alloc::collections::TryReserveError>::Err", %"core::result::Result<(), alloc::collections::TryReserveError>::Err"* %3, i32 0, i32 1
  %5 = getelementptr inbounds { i64, i64 }, { i64, i64 }* %4, i32 0, i32 0
  %e.0 = load i64, i64* %5, align 8
  %6 = getelementptr inbounds { i64, i64 }, { i64, i64 }* %4, i32 0, i32 1
  %e.1 = load i64, i64* %6, align 8
  store i8 0, i8* %_9, align 1
  %7 = getelementptr inbounds { i64, i64 }, { i64, i64 }* %_7, i32 0, i32 0
  store i64 %e.0, i64* %7, align 8
  %8 = getelementptr inbounds { i64, i64 }, { i64, i64 }* %_7, i32 0, i32 1
  store i64 %e.1, i64* %8, align 8
  %9 = getelementptr inbounds { i64, i64 }, { i64, i64 }* %_7, i32 0, i32 0
  %10 = load i64, i64* %9, align 8
  %11 = getelementptr inbounds { i64, i64 }, { i64, i64 }* %_7, i32 0, i32 1
  %12 = load i64, i64* %11, align 8
; invoke alloc::raw_vec::RawVec<T,A>::allocate_in::{{closure}}
  invoke void @"_ZN5alloc7raw_vec19RawVec$LT$T$C$A$GT$11allocate_in28_$u7b$$u7b$closure$u7d$$u7d$17h8eec5c75da98b718E"(i64 %10, i64 %12)
          to label %bb4 unwind label %cleanup

bb2:                                              ; preds = %start
  unreachable

bb3:                                              ; preds = %start
  br label %bb5

bb4:                                              ; preds = %bb1
  br label %bb5

bb5:                                              ; preds = %bb3, %bb4
  %13 = load i8, i8* %_9, align 1, !range !4
  %14 = trunc i8 %13 to i1
  br i1 %14, label %bb8, label %bb6

bb6:                                              ; preds = %bb8, %bb5
  ret void

bb7:                                              ; preds = %cleanup
  %15 = bitcast { i8*, i32 }* %0 to i8**
  %16 = load i8*, i8** %15, align 8
  %17 = getelementptr inbounds { i8*, i32 }, { i8*, i32 }* %0, i32 0, i32 1
  %18 = load i32, i32* %17, align 8
  %19 = insertvalue { i8*, i32 } undef, i8* %16, 0
  %20 = insertvalue { i8*, i32 } %19, i32 %18, 1
  resume { i8*, i32 } %20

bb8:                                              ; preds = %bb5
  store i8 0, i8* %_9, align 1
  br label %bb6

cleanup:                                          ; preds = %bb1
  %21 = landingpad { i8*, i32 }
          cleanup
  %22 = extractvalue { i8*, i32 } %21, 0
  %23 = extractvalue { i8*, i32 } %21, 1
  %24 = getelementptr inbounds { i8*, i32 }, { i8*, i32 }* %0, i32 0, i32 0
  store i8* %22, i8** %24, align 8
  %25 = getelementptr inbounds { i8*, i32 }, { i8*, i32 }* %0, i32 0, i32 1
  store i32 %23, i32* %25, align 8
  br label %bb7
}

; core::result::Result<T,E>::unwrap
; Function Attrs: inlinehint uwtable
define internal { i64, i64 } @"_ZN4core6result19Result$LT$T$C$E$GT$6unwrap17h9b28b11f39c5ffbeE"(i64, i64, %"core::panic::Location"* noalias readonly align 8 dereferenceable(24)) unnamed_addr #0 personality i32 (i32, i32, i64, %"unwind::libunwind::_Unwind_Exception"*, %"unwind::libunwind::_Unwind_Context"*)* @rust_eh_personality {
start:
  %3 = alloca { i8*, i32 }, align 8
  %e = alloca %"core::alloc::layout::LayoutErr", align 1
  %self = alloca { i64, i64 }, align 8
  %4 = getelementptr inbounds { i64, i64 }, { i64, i64 }* %self, i32 0, i32 0
  store i64 %0, i64* %4, align 8
  %5 = getelementptr inbounds { i64, i64 }, { i64, i64 }* %self, i32 0, i32 1
  store i64 %1, i64* %5, align 8
  %6 = getelementptr inbounds { i64, i64 }, { i64, i64 }* %self, i32 0, i32 1
  %7 = load i64, i64* %6, align 8
  %8 = icmp ule i64 %7, 0
  %_2 = select i1 %8, i64 1, i64 0
  switch i64 %_2, label %bb2 [
    i64 0, label %bb3
    i64 1, label %bb1
  ]

bb1:                                              ; preds = %start
  %_7.0 = bitcast %"core::alloc::layout::LayoutErr"* %e to {}*
; invoke core::result::unwrap_failed
  invoke void @_ZN4core6result13unwrap_failed17h71fe5d08237d0e52E([0 x i8]* noalias nonnull readonly align 1 bitcast (<{ [43 x i8] }>* @alloc63 to [0 x i8]*), i64 43, {}* nonnull align 1 %_7.0, [3 x i64]* noalias readonly align 8 dereferenceable(24) bitcast ({ void (%"core::alloc::layout::LayoutErr"*)*, i64, i64, i1 (%"core::alloc::layout::LayoutErr"*, %"core::fmt::Formatter"*)* }* @vtable.1 to [3 x i64]*), %"core::panic::Location"* noalias readonly align 8 dereferenceable(24) %2)
          to label %unreachable unwind label %cleanup

bb2:                                              ; preds = %start
  unreachable

bb3:                                              ; preds = %start
  %9 = getelementptr inbounds { i64, i64 }, { i64, i64 }* %self, i32 0, i32 0
  %t.0 = load i64, i64* %9, align 8
  %10 = getelementptr inbounds { i64, i64 }, { i64, i64 }* %self, i32 0, i32 1
  %t.1 = load i64, i64* %10, align 8, !range !5
  %11 = insertvalue { i64, i64 } undef, i64 %t.0, 0
  %12 = insertvalue { i64, i64 } %11, i64 %t.1, 1
  ret { i64, i64 } %12

bb4:                                              ; preds = %bb5
  %13 = bitcast { i8*, i32 }* %3 to i8**
  %14 = load i8*, i8** %13, align 8
  %15 = getelementptr inbounds { i8*, i32 }, { i8*, i32 }* %3, i32 0, i32 1
  %16 = load i32, i32* %15, align 8
  %17 = insertvalue { i8*, i32 } undef, i8* %14, 0
  %18 = insertvalue { i8*, i32 } %17, i32 %16, 1
  resume { i8*, i32 } %18

bb5:                                              ; preds = %cleanup
  br label %bb4

unreachable:                                      ; preds = %bb1
  unreachable

cleanup:                                          ; preds = %bb1
  %19 = landingpad { i8*, i32 }
          cleanup
  %20 = extractvalue { i8*, i32 } %19, 0
  %21 = extractvalue { i8*, i32 } %19, 1
  %22 = getelementptr inbounds { i8*, i32 }, { i8*, i32 }* %3, i32 0, i32 0
  store i8* %20, i8** %22, align 8
  %23 = getelementptr inbounds { i8*, i32 }, { i8*, i32 }* %3, i32 0, i32 1
  store i32 %21, i32* %23, align 8
  br label %bb5
}

; core::result::Result<T,E>::map_err
; Function Attrs: inlinehint uwtable
define internal void @"_ZN4core6result19Result$LT$T$C$E$GT$7map_err17h620c9e846972c262E"(%"core::result::Result<core::alloc::layout::Layout, alloc::collections::TryReserveError>"* noalias nocapture sret dereferenceable(24), i64, i64) unnamed_addr #0 personality i32 (i32, i32, i64, %"unwind::libunwind::_Unwind_Exception"*, %"unwind::libunwind::_Unwind_Context"*)* @rust_eh_personality {
start:
  %3 = alloca { i8*, i32 }, align 8
  %_11 = alloca i8, align 1
  %_9 = alloca { [0 x i8], %"core::alloc::layout::LayoutErr", [0 x i8] }, align 1
  %self = alloca { i64, i64 }, align 8
  %4 = getelementptr inbounds { i64, i64 }, { i64, i64 }* %self, i32 0, i32 0
  store i64 %1, i64* %4, align 8
  %5 = getelementptr inbounds { i64, i64 }, { i64, i64 }* %self, i32 0, i32 1
  store i64 %2, i64* %5, align 8
  store i8 0, i8* %_11, align 1
  store i8 1, i8* %_11, align 1
  %6 = getelementptr inbounds { i64, i64 }, { i64, i64 }* %self, i32 0, i32 1
  %7 = load i64, i64* %6, align 8
  %8 = icmp ule i64 %7, 0
  %_3 = select i1 %8, i64 1, i64 0
  switch i64 %_3, label %bb2 [
    i64 0, label %bb3
    i64 1, label %bb1
  ]

bb1:                                              ; preds = %start
  store i8 0, i8* %_11, align 1
  %9 = bitcast { [0 x i8], %"core::alloc::layout::LayoutErr", [0 x i8] }* %_9 to %"core::alloc::layout::LayoutErr"*
; invoke alloc::raw_vec::RawVec<T,A>::grow::{{closure}}
  %10 = invoke { i64, i64 } @"_ZN5alloc7raw_vec19RawVec$LT$T$C$A$GT$4grow28_$u7b$$u7b$closure$u7d$$u7d$17hb37f5d3701ec214bE"()
          to label %bb4 unwind label %cleanup

bb2:                                              ; preds = %start
  unreachable

bb3:                                              ; preds = %start
  %11 = getelementptr inbounds { i64, i64 }, { i64, i64 }* %self, i32 0, i32 0
  %t.0 = load i64, i64* %11, align 8
  %12 = getelementptr inbounds { i64, i64 }, { i64, i64 }* %self, i32 0, i32 1
  %t.1 = load i64, i64* %12, align 8, !range !5
  %13 = bitcast %"core::result::Result<core::alloc::layout::Layout, alloc::collections::TryReserveError>"* %0 to %"core::result::Result<core::alloc::layout::Layout, alloc::collections::TryReserveError>::Ok"*
  %14 = getelementptr inbounds %"core::result::Result<core::alloc::layout::Layout, alloc::collections::TryReserveError>::Ok", %"core::result::Result<core::alloc::layout::Layout, alloc::collections::TryReserveError>::Ok"* %13, i32 0, i32 1
  %15 = getelementptr inbounds { i64, i64 }, { i64, i64 }* %14, i32 0, i32 0
  store i64 %t.0, i64* %15, align 8
  %16 = getelementptr inbounds { i64, i64 }, { i64, i64 }* %14, i32 0, i32 1
  store i64 %t.1, i64* %16, align 8
  %17 = bitcast %"core::result::Result<core::alloc::layout::Layout, alloc::collections::TryReserveError>"* %0 to i64*
  store i64 0, i64* %17, align 8
  br label %bb5

bb4:                                              ; preds = %bb1
  %_7.0 = extractvalue { i64, i64 } %10, 0
  %_7.1 = extractvalue { i64, i64 } %10, 1
  %18 = bitcast %"core::result::Result<core::alloc::layout::Layout, alloc::collections::TryReserveError>"* %0 to %"core::result::Result<core::alloc::layout::Layout, alloc::collections::TryReserveError>::Err"*
  %19 = getelementptr inbounds %"core::result::Result<core::alloc::layout::Layout, alloc::collections::TryReserveError>::Err", %"core::result::Result<core::alloc::layout::Layout, alloc::collections::TryReserveError>::Err"* %18, i32 0, i32 1
  %20 = getelementptr inbounds { i64, i64 }, { i64, i64 }* %19, i32 0, i32 0
  store i64 %_7.0, i64* %20, align 8
  %21 = getelementptr inbounds { i64, i64 }, { i64, i64 }* %19, i32 0, i32 1
  store i64 %_7.1, i64* %21, align 8
  %22 = bitcast %"core::result::Result<core::alloc::layout::Layout, alloc::collections::TryReserveError>"* %0 to i64*
  store i64 1, i64* %22, align 8
  br label %bb5

bb5:                                              ; preds = %bb3, %bb4
  %23 = load i8, i8* %_11, align 1, !range !4
  %24 = trunc i8 %23 to i1
  br i1 %24, label %bb8, label %bb6

bb6:                                              ; preds = %bb8, %bb5
  ret void

bb7:                                              ; preds = %cleanup
  %25 = bitcast { i8*, i32 }* %3 to i8**
  %26 = load i8*, i8** %25, align 8
  %27 = getelementptr inbounds { i8*, i32 }, { i8*, i32 }* %3, i32 0, i32 1
  %28 = load i32, i32* %27, align 8
  %29 = insertvalue { i8*, i32 } undef, i8* %26, 0
  %30 = insertvalue { i8*, i32 } %29, i32 %28, 1
  resume { i8*, i32 } %30

bb8:                                              ; preds = %bb5
  store i8 0, i8* %_11, align 1
  br label %bb6

cleanup:                                          ; preds = %bb1
  %31 = landingpad { i8*, i32 }
          cleanup
  %32 = extractvalue { i8*, i32 } %31, 0
  %33 = extractvalue { i8*, i32 } %31, 1
  %34 = getelementptr inbounds { i8*, i32 }, { i8*, i32 }* %3, i32 0, i32 0
  store i8* %32, i8** %34, align 8
  %35 = getelementptr inbounds { i8*, i32 }, { i8*, i32 }* %3, i32 0, i32 1
  store i32 %33, i32* %35, align 8
  br label %bb7
}

; core::result::Result<T,E>::map_err
; Function Attrs: inlinehint uwtable
define internal void @"_ZN4core6result19Result$LT$T$C$E$GT$7map_err17h98fe0c3f5c4be48dE"(%"core::result::Result<core::alloc::MemoryBlock, alloc::collections::TryReserveError>"* noalias nocapture sret dereferenceable(24), i8*, i64, i64* noalias readonly align 8 dereferenceable(16) %op) unnamed_addr #0 personality i32 (i32, i32, i64, %"unwind::libunwind::_Unwind_Exception"*, %"unwind::libunwind::_Unwind_Context"*)* @rust_eh_personality {
start:
  %3 = alloca { i8*, i32 }, align 8
  %_11 = alloca i8, align 1
  %_9 = alloca { [0 x i8], %"core::alloc::AllocErr", [0 x i8] }, align 1
  %self = alloca { i8*, i64 }, align 8
  %4 = getelementptr inbounds { i8*, i64 }, { i8*, i64 }* %self, i32 0, i32 0
  store i8* %1, i8** %4, align 8
  %5 = getelementptr inbounds { i8*, i64 }, { i8*, i64 }* %self, i32 0, i32 1
  store i64 %2, i64* %5, align 8
  store i8 0, i8* %_11, align 1
  store i8 1, i8* %_11, align 1
  %6 = bitcast { i8*, i64 }* %self to {}**
  %7 = load {}*, {}** %6, align 8
  %8 = icmp ule {}* %7, null
  %_3 = select i1 %8, i64 1, i64 0
  switch i64 %_3, label %bb2 [
    i64 0, label %bb3
    i64 1, label %bb1
  ]

bb1:                                              ; preds = %start
  store i8 0, i8* %_11, align 1
  %9 = bitcast { [0 x i8], %"core::alloc::AllocErr", [0 x i8] }* %_9 to %"core::alloc::AllocErr"*
; invoke alloc::raw_vec::RawVec<T,A>::grow::{{closure}}
  %10 = invoke { i64, i64 } @"_ZN5alloc7raw_vec19RawVec$LT$T$C$A$GT$4grow28_$u7b$$u7b$closure$u7d$$u7d$17he90be5c9c98bf654E"(i64* noalias readonly align 8 dereferenceable(16) %op)
          to label %bb4 unwind label %cleanup

bb2:                                              ; preds = %start
  unreachable

bb3:                                              ; preds = %start
  %11 = getelementptr inbounds { i8*, i64 }, { i8*, i64 }* %self, i32 0, i32 0
  %t.0 = load i8*, i8** %11, align 8, !nonnull !2
  %12 = getelementptr inbounds { i8*, i64 }, { i8*, i64 }* %self, i32 0, i32 1
  %t.1 = load i64, i64* %12, align 8
  %13 = bitcast %"core::result::Result<core::alloc::MemoryBlock, alloc::collections::TryReserveError>"* %0 to %"core::result::Result<core::alloc::MemoryBlock, alloc::collections::TryReserveError>::Ok"*
  %14 = getelementptr inbounds %"core::result::Result<core::alloc::MemoryBlock, alloc::collections::TryReserveError>::Ok", %"core::result::Result<core::alloc::MemoryBlock, alloc::collections::TryReserveError>::Ok"* %13, i32 0, i32 1
  %15 = getelementptr inbounds { i8*, i64 }, { i8*, i64 }* %14, i32 0, i32 0
  store i8* %t.0, i8** %15, align 8
  %16 = getelementptr inbounds { i8*, i64 }, { i8*, i64 }* %14, i32 0, i32 1
  store i64 %t.1, i64* %16, align 8
  %17 = bitcast %"core::result::Result<core::alloc::MemoryBlock, alloc::collections::TryReserveError>"* %0 to i64*
  store i64 0, i64* %17, align 8
  br label %bb5

bb4:                                              ; preds = %bb1
  %_7.0 = extractvalue { i64, i64 } %10, 0
  %_7.1 = extractvalue { i64, i64 } %10, 1
  %18 = bitcast %"core::result::Result<core::alloc::MemoryBlock, alloc::collections::TryReserveError>"* %0 to %"core::result::Result<core::alloc::MemoryBlock, alloc::collections::TryReserveError>::Err"*
  %19 = getelementptr inbounds %"core::result::Result<core::alloc::MemoryBlock, alloc::collections::TryReserveError>::Err", %"core::result::Result<core::alloc::MemoryBlock, alloc::collections::TryReserveError>::Err"* %18, i32 0, i32 1
  %20 = getelementptr inbounds { i64, i64 }, { i64, i64 }* %19, i32 0, i32 0
  store i64 %_7.0, i64* %20, align 8
  %21 = getelementptr inbounds { i64, i64 }, { i64, i64 }* %19, i32 0, i32 1
  store i64 %_7.1, i64* %21, align 8
  %22 = bitcast %"core::result::Result<core::alloc::MemoryBlock, alloc::collections::TryReserveError>"* %0 to i64*
  store i64 1, i64* %22, align 8
  br label %bb5

bb5:                                              ; preds = %bb3, %bb4
  %23 = load i8, i8* %_11, align 1, !range !4
  %24 = trunc i8 %23 to i1
  br i1 %24, label %bb8, label %bb6

bb6:                                              ; preds = %bb8, %bb5
  ret void

bb7:                                              ; preds = %cleanup
  %25 = bitcast { i8*, i32 }* %3 to i8**
  %26 = load i8*, i8** %25, align 8
  %27 = getelementptr inbounds { i8*, i32 }, { i8*, i32 }* %3, i32 0, i32 1
  %28 = load i32, i32* %27, align 8
  %29 = insertvalue { i8*, i32 } undef, i8* %26, 0
  %30 = insertvalue { i8*, i32 } %29, i32 %28, 1
  resume { i8*, i32 } %30

bb8:                                              ; preds = %bb5
  store i8 0, i8* %_11, align 1
  br label %bb6

cleanup:                                          ; preds = %bb1
  %31 = landingpad { i8*, i32 }
          cleanup
  %32 = extractvalue { i8*, i32 } %31, 0
  %33 = extractvalue { i8*, i32 } %31, 1
  %34 = getelementptr inbounds { i8*, i32 }, { i8*, i32 }* %3, i32 0, i32 0
  store i8* %32, i8** %34, align 8
  %35 = getelementptr inbounds { i8*, i32 }, { i8*, i32 }* %3, i32 0, i32 1
  store i32 %33, i32* %35, align 8
  br label %bb7
}

; core::result::Result<T,E>::map_err
; Function Attrs: inlinehint uwtable
define internal void @"_ZN4core6result19Result$LT$T$C$E$GT$7map_err17hb33feff3abe09354E"(%"core::result::Result<core::alloc::MemoryBlock, alloc::collections::TryReserveError>"* noalias nocapture sret dereferenceable(24), i8*, i64, i64* noalias readonly align 8 dereferenceable(16) %op) unnamed_addr #0 personality i32 (i32, i32, i64, %"unwind::libunwind::_Unwind_Exception"*, %"unwind::libunwind::_Unwind_Context"*)* @rust_eh_personality {
start:
  %3 = alloca { i8*, i32 }, align 8
  %_11 = alloca i8, align 1
  %_9 = alloca { [0 x i8], %"core::alloc::AllocErr", [0 x i8] }, align 1
  %self = alloca { i8*, i64 }, align 8
  %4 = getelementptr inbounds { i8*, i64 }, { i8*, i64 }* %self, i32 0, i32 0
  store i8* %1, i8** %4, align 8
  %5 = getelementptr inbounds { i8*, i64 }, { i8*, i64 }* %self, i32 0, i32 1
  store i64 %2, i64* %5, align 8
  store i8 0, i8* %_11, align 1
  store i8 1, i8* %_11, align 1
  %6 = bitcast { i8*, i64 }* %self to {}**
  %7 = load {}*, {}** %6, align 8
  %8 = icmp ule {}* %7, null
  %_3 = select i1 %8, i64 1, i64 0
  switch i64 %_3, label %bb2 [
    i64 0, label %bb3
    i64 1, label %bb1
  ]

bb1:                                              ; preds = %start
  store i8 0, i8* %_11, align 1
  %9 = bitcast { [0 x i8], %"core::alloc::AllocErr", [0 x i8] }* %_9 to %"core::alloc::AllocErr"*
; invoke alloc::raw_vec::RawVec<T,A>::grow::{{closure}}
  %10 = invoke { i64, i64 } @"_ZN5alloc7raw_vec19RawVec$LT$T$C$A$GT$4grow28_$u7b$$u7b$closure$u7d$$u7d$17h0d284e53d73406adE"(i64* noalias readonly align 8 dereferenceable(16) %op)
          to label %bb4 unwind label %cleanup

bb2:                                              ; preds = %start
  unreachable

bb3:                                              ; preds = %start
  %11 = getelementptr inbounds { i8*, i64 }, { i8*, i64 }* %self, i32 0, i32 0
  %t.0 = load i8*, i8** %11, align 8, !nonnull !2
  %12 = getelementptr inbounds { i8*, i64 }, { i8*, i64 }* %self, i32 0, i32 1
  %t.1 = load i64, i64* %12, align 8
  %13 = bitcast %"core::result::Result<core::alloc::MemoryBlock, alloc::collections::TryReserveError>"* %0 to %"core::result::Result<core::alloc::MemoryBlock, alloc::collections::TryReserveError>::Ok"*
  %14 = getelementptr inbounds %"core::result::Result<core::alloc::MemoryBlock, alloc::collections::TryReserveError>::Ok", %"core::result::Result<core::alloc::MemoryBlock, alloc::collections::TryReserveError>::Ok"* %13, i32 0, i32 1
  %15 = getelementptr inbounds { i8*, i64 }, { i8*, i64 }* %14, i32 0, i32 0
  store i8* %t.0, i8** %15, align 8
  %16 = getelementptr inbounds { i8*, i64 }, { i8*, i64 }* %14, i32 0, i32 1
  store i64 %t.1, i64* %16, align 8
  %17 = bitcast %"core::result::Result<core::alloc::MemoryBlock, alloc::collections::TryReserveError>"* %0 to i64*
  store i64 0, i64* %17, align 8
  br label %bb5

bb4:                                              ; preds = %bb1
  %_7.0 = extractvalue { i64, i64 } %10, 0
  %_7.1 = extractvalue { i64, i64 } %10, 1
  %18 = bitcast %"core::result::Result<core::alloc::MemoryBlock, alloc::collections::TryReserveError>"* %0 to %"core::result::Result<core::alloc::MemoryBlock, alloc::collections::TryReserveError>::Err"*
  %19 = getelementptr inbounds %"core::result::Result<core::alloc::MemoryBlock, alloc::collections::TryReserveError>::Err", %"core::result::Result<core::alloc::MemoryBlock, alloc::collections::TryReserveError>::Err"* %18, i32 0, i32 1
  %20 = getelementptr inbounds { i64, i64 }, { i64, i64 }* %19, i32 0, i32 0
  store i64 %_7.0, i64* %20, align 8
  %21 = getelementptr inbounds { i64, i64 }, { i64, i64 }* %19, i32 0, i32 1
  store i64 %_7.1, i64* %21, align 8
  %22 = bitcast %"core::result::Result<core::alloc::MemoryBlock, alloc::collections::TryReserveError>"* %0 to i64*
  store i64 1, i64* %22, align 8
  br label %bb5

bb5:                                              ; preds = %bb3, %bb4
  %23 = load i8, i8* %_11, align 1, !range !4
  %24 = trunc i8 %23 to i1
  br i1 %24, label %bb8, label %bb6

bb6:                                              ; preds = %bb8, %bb5
  ret void

bb7:                                              ; preds = %cleanup
  %25 = bitcast { i8*, i32 }* %3 to i8**
  %26 = load i8*, i8** %25, align 8
  %27 = getelementptr inbounds { i8*, i32 }, { i8*, i32 }* %3, i32 0, i32 1
  %28 = load i32, i32* %27, align 8
  %29 = insertvalue { i8*, i32 } undef, i8* %26, 0
  %30 = insertvalue { i8*, i32 } %29, i32 %28, 1
  resume { i8*, i32 } %30

bb8:                                              ; preds = %bb5
  store i8 0, i8* %_11, align 1
  br label %bb6

cleanup:                                          ; preds = %bb1
  %31 = landingpad { i8*, i32 }
          cleanup
  %32 = extractvalue { i8*, i32 } %31, 0
  %33 = extractvalue { i8*, i32 } %31, 1
  %34 = getelementptr inbounds { i8*, i32 }, { i8*, i32 }* %3, i32 0, i32 0
  store i8* %32, i8** %34, align 8
  %35 = getelementptr inbounds { i8*, i32 }, { i8*, i32 }* %3, i32 0, i32 1
  store i32 %33, i32* %35, align 8
  br label %bb7
}

; core::result::Result<T,E>::map_err
; Function Attrs: inlinehint uwtable
define internal void @"_ZN4core6result19Result$LT$T$C$E$GT$7map_err17hd43b83d0327af3adE"(%"core::result::Result<core::alloc::layout::Layout, alloc::collections::TryReserveError>"* noalias nocapture sret dereferenceable(24), i64, i64) unnamed_addr #0 personality i32 (i32, i32, i64, %"unwind::libunwind::_Unwind_Exception"*, %"unwind::libunwind::_Unwind_Context"*)* @rust_eh_personality {
start:
  %3 = alloca { i8*, i32 }, align 8
  %_11 = alloca i8, align 1
  %_9 = alloca { [0 x i8], %"core::alloc::layout::LayoutErr", [0 x i8] }, align 1
  %self = alloca { i64, i64 }, align 8
  %4 = getelementptr inbounds { i64, i64 }, { i64, i64 }* %self, i32 0, i32 0
  store i64 %1, i64* %4, align 8
  %5 = getelementptr inbounds { i64, i64 }, { i64, i64 }* %self, i32 0, i32 1
  store i64 %2, i64* %5, align 8
  store i8 0, i8* %_11, align 1
  store i8 1, i8* %_11, align 1
  %6 = getelementptr inbounds { i64, i64 }, { i64, i64 }* %self, i32 0, i32 1
  %7 = load i64, i64* %6, align 8
  %8 = icmp ule i64 %7, 0
  %_3 = select i1 %8, i64 1, i64 0
  switch i64 %_3, label %bb2 [
    i64 0, label %bb3
    i64 1, label %bb1
  ]

bb1:                                              ; preds = %start
  store i8 0, i8* %_11, align 1
  %9 = bitcast { [0 x i8], %"core::alloc::layout::LayoutErr", [0 x i8] }* %_9 to %"core::alloc::layout::LayoutErr"*
; invoke alloc::raw_vec::RawVec<T,A>::grow::{{closure}}
  %10 = invoke { i64, i64 } @"_ZN5alloc7raw_vec19RawVec$LT$T$C$A$GT$4grow28_$u7b$$u7b$closure$u7d$$u7d$17h52c39404439be71aE"()
          to label %bb4 unwind label %cleanup

bb2:                                              ; preds = %start
  unreachable

bb3:                                              ; preds = %start
  %11 = getelementptr inbounds { i64, i64 }, { i64, i64 }* %self, i32 0, i32 0
  %t.0 = load i64, i64* %11, align 8
  %12 = getelementptr inbounds { i64, i64 }, { i64, i64 }* %self, i32 0, i32 1
  %t.1 = load i64, i64* %12, align 8, !range !5
  %13 = bitcast %"core::result::Result<core::alloc::layout::Layout, alloc::collections::TryReserveError>"* %0 to %"core::result::Result<core::alloc::layout::Layout, alloc::collections::TryReserveError>::Ok"*
  %14 = getelementptr inbounds %"core::result::Result<core::alloc::layout::Layout, alloc::collections::TryReserveError>::Ok", %"core::result::Result<core::alloc::layout::Layout, alloc::collections::TryReserveError>::Ok"* %13, i32 0, i32 1
  %15 = getelementptr inbounds { i64, i64 }, { i64, i64 }* %14, i32 0, i32 0
  store i64 %t.0, i64* %15, align 8
  %16 = getelementptr inbounds { i64, i64 }, { i64, i64 }* %14, i32 0, i32 1
  store i64 %t.1, i64* %16, align 8
  %17 = bitcast %"core::result::Result<core::alloc::layout::Layout, alloc::collections::TryReserveError>"* %0 to i64*
  store i64 0, i64* %17, align 8
  br label %bb5

bb4:                                              ; preds = %bb1
  %_7.0 = extractvalue { i64, i64 } %10, 0
  %_7.1 = extractvalue { i64, i64 } %10, 1
  %18 = bitcast %"core::result::Result<core::alloc::layout::Layout, alloc::collections::TryReserveError>"* %0 to %"core::result::Result<core::alloc::layout::Layout, alloc::collections::TryReserveError>::Err"*
  %19 = getelementptr inbounds %"core::result::Result<core::alloc::layout::Layout, alloc::collections::TryReserveError>::Err", %"core::result::Result<core::alloc::layout::Layout, alloc::collections::TryReserveError>::Err"* %18, i32 0, i32 1
  %20 = getelementptr inbounds { i64, i64 }, { i64, i64 }* %19, i32 0, i32 0
  store i64 %_7.0, i64* %20, align 8
  %21 = getelementptr inbounds { i64, i64 }, { i64, i64 }* %19, i32 0, i32 1
  store i64 %_7.1, i64* %21, align 8
  %22 = bitcast %"core::result::Result<core::alloc::layout::Layout, alloc::collections::TryReserveError>"* %0 to i64*
  store i64 1, i64* %22, align 8
  br label %bb5

bb5:                                              ; preds = %bb3, %bb4
  %23 = load i8, i8* %_11, align 1, !range !4
  %24 = trunc i8 %23 to i1
  br i1 %24, label %bb8, label %bb6

bb6:                                              ; preds = %bb8, %bb5
  ret void

bb7:                                              ; preds = %cleanup
  %25 = bitcast { i8*, i32 }* %3 to i8**
  %26 = load i8*, i8** %25, align 8
  %27 = getelementptr inbounds { i8*, i32 }, { i8*, i32 }* %3, i32 0, i32 1
  %28 = load i32, i32* %27, align 8
  %29 = insertvalue { i8*, i32 } undef, i8* %26, 0
  %30 = insertvalue { i8*, i32 } %29, i32 %28, 1
  resume { i8*, i32 } %30

bb8:                                              ; preds = %bb5
  store i8 0, i8* %_11, align 1
  br label %bb6

cleanup:                                          ; preds = %bb1
  %31 = landingpad { i8*, i32 }
          cleanup
  %32 = extractvalue { i8*, i32 } %31, 0
  %33 = extractvalue { i8*, i32 } %31, 1
  %34 = getelementptr inbounds { i8*, i32 }, { i8*, i32 }* %3, i32 0, i32 0
  store i8* %32, i8** %34, align 8
  %35 = getelementptr inbounds { i8*, i32 }, { i8*, i32 }* %3, i32 0, i32 1
  store i32 %33, i32* %35, align 8
  br label %bb7
}

; <T as core::convert::From<T>>::from
; Function Attrs: uwtable
define internal { i64, i64 } @"_ZN50_$LT$T$u20$as$u20$core..convert..From$LT$T$GT$$GT$4from17h1bd8f1ae55d0fee8E"(i64 %t.0, i64 %t.1) unnamed_addr #1 {
start:
  %0 = insertvalue { i64, i64 } undef, i64 %t.0, 0
  %1 = insertvalue { i64, i64 } %0, i64 %t.1, 1
  ret { i64, i64 } %1
}

; <T as core::convert::From<T>>::from
; Function Attrs: uwtable
define internal void @"_ZN50_$LT$T$u20$as$u20$core..convert..From$LT$T$GT$$GT$4from17h32d6a0084827c257E"() unnamed_addr #1 {
start:
  ret void
}

; <T as core::convert::From<T>>::from
; Function Attrs: uwtable
define internal void @"_ZN50_$LT$T$u20$as$u20$core..convert..From$LT$T$GT$$GT$4from17hbb2bd72ed45a0fe3E"() unnamed_addr #1 {
start:
  ret void
}

; <T as core::convert::From<T>>::from
; Function Attrs: uwtable
define internal void @"_ZN50_$LT$T$u20$as$u20$core..convert..From$LT$T$GT$$GT$4from17hc7b5f579648ec232E"() unnamed_addr #1 {
start:
  ret void
}

; <T as core::convert::Into<U>>::into
; Function Attrs: uwtable
define internal nonnull i8* @"_ZN50_$LT$T$u20$as$u20$core..convert..Into$LT$U$GT$$GT$4into17h5ae94a9299bf2003E"(i8* nonnull %self) unnamed_addr #1 {
start:
; call <core::ptr::non_null::NonNull<T> as core::convert::From<core::ptr::unique::Unique<T>>>::from
  %0 = call nonnull i8* @"_ZN119_$LT$core..ptr..non_null..NonNull$LT$T$GT$$u20$as$u20$core..convert..From$LT$core..ptr..unique..Unique$LT$T$GT$$GT$$GT$4from17h18268c3241915a2cE"(i8* nonnull %self)
  br label %bb1

bb1:                                              ; preds = %start
  ret i8* %0
}

; <T as core::convert::Into<U>>::into
; Function Attrs: uwtable
define internal nonnull i8* @"_ZN50_$LT$T$u20$as$u20$core..convert..Into$LT$U$GT$$GT$4into17h6ef1e84771850897E"(i8* nonnull %self) unnamed_addr #1 {
start:
; call <core::ptr::unique::Unique<T> as core::convert::From<core::ptr::non_null::NonNull<T>>>::from
  %0 = call nonnull i8* @"_ZN119_$LT$core..ptr..unique..Unique$LT$T$GT$$u20$as$u20$core..convert..From$LT$core..ptr..non_null..NonNull$LT$T$GT$$GT$$GT$4from17h67b80256054a125dE"(i8* nonnull %self)
  br label %bb1

bb1:                                              ; preds = %start
  ret i8* %0
}

; <T as core::convert::Into<U>>::into
; Function Attrs: uwtable
define internal { i64*, i64 } @"_ZN50_$LT$T$u20$as$u20$core..convert..Into$LT$U$GT$$GT$4into17hbe2dbc1eef970ffbE"(i64* nonnull %self.0, i64 %self.1) unnamed_addr #1 {
start:
; call <core::ptr::non_null::NonNull<T> as core::convert::From<core::ptr::unique::Unique<T>>>::from
  %0 = call { i64*, i64 } @"_ZN119_$LT$core..ptr..non_null..NonNull$LT$T$GT$$u20$as$u20$core..convert..From$LT$core..ptr..unique..Unique$LT$T$GT$$GT$$GT$4from17h44381f52f152e0ffE"(i64* nonnull %self.0, i64 %self.1)
  %1 = extractvalue { i64*, i64 } %0, 0
  %2 = extractvalue { i64*, i64 } %0, 1
  br label %bb1

bb1:                                              ; preds = %start
  %3 = insertvalue { i64*, i64 } undef, i64* %1, 0
  %4 = insertvalue { i64*, i64 } %3, i64 %2, 1
  ret { i64*, i64 } %4
}

; <() as std::process::Termination>::report
; Function Attrs: inlinehint uwtable
define internal i32 @"_ZN54_$LT$$LP$$RP$$u20$as$u20$std..process..Termination$GT$6report17ha18d0453ef346652E"() unnamed_addr #0 {
start:
; call <std::process::ExitCode as std::process::Termination>::report
  %0 = call i32 @"_ZN68_$LT$std..process..ExitCode$u20$as$u20$std..process..Termination$GT$6report17h989563deac20f65eE"(i8 0)
  br label %bb1

bb1:                                              ; preds = %start
  ret i32 %0
}

; alloc::str::join_generic_copy
; Function Attrs: uwtable
define internal void @_ZN5alloc3str17join_generic_copy17h4fcbff78553db46cE(%"alloc::vec::Vec<u8>"* noalias nocapture sret dereferenceable(24), [0 x %"alloc::string::String"]* noalias nonnull readonly align 8, i64, [0 x i8]* noalias nonnull readonly align 1 %sep.0, i64 %sep.1) unnamed_addr #1 personality i32 (i32, i32, i64, %"unwind::libunwind::_Unwind_Exception"*, %"unwind::libunwind::_Unwind_Context"*)* @rust_eh_personality {
start:
  %3 = alloca i64, align 8
  %4 = alloca i64, align 8
  %5 = alloca i64, align 8
  %6 = alloca { i8*, i32 }, align 8
  %_298 = alloca { [0 x i64], { [0 x i8]*, i64 }, [0 x i64], { [0 x i8]*, i64 }, [0 x i64] }, align 8
  %_282 = alloca { [0 x i64], { [0 x i8]*, i64 }, [0 x i64], { [0 x i8]*, i64 }, [0 x i64] }, align 8
  %_271 = alloca i64*, align 8
  %iter6 = alloca { i64*, i64* }, align 8
  %_255 = alloca { [0 x i64], { [0 x i8]*, i64 }, [0 x i64], { [0 x i8]*, i64 }, [0 x i64] }, align 8
  %_239 = alloca { [0 x i64], { [0 x i8]*, i64 }, [0 x i64], { [0 x i8]*, i64 }, [0 x i64] }, align 8
  %_228 = alloca i64*, align 8
  %iter5 = alloca { i64*, i64* }, align 8
  %_212 = alloca { [0 x i64], { [0 x i8]*, i64 }, [0 x i64], { [0 x i8]*, i64 }, [0 x i64] }, align 8
  %_196 = alloca { [0 x i64], { [0 x i8]*, i64 }, [0 x i64], { [0 x i8]*, i64 }, [0 x i64] }, align 8
  %_185 = alloca i64*, align 8
  %iter4 = alloca { i64*, i64* }, align 8
  %_169 = alloca { [0 x i64], { [0 x i8]*, i64 }, [0 x i64], { [0 x i8]*, i64 }, [0 x i64] }, align 8
  %_153 = alloca { [0 x i64], { [0 x i8]*, i64 }, [0 x i64], { [0 x i8]*, i64 }, [0 x i64] }, align 8
  %_142 = alloca i64*, align 8
  %iter3 = alloca { i64*, i64* }, align 8
  %_126 = alloca { [0 x i64], { [0 x i8]*, i64 }, [0 x i64], { [0 x i8]*, i64 }, [0 x i64] }, align 8
  %_110 = alloca { [0 x i64], { [0 x i8]*, i64 }, [0 x i64], { [0 x i8]*, i64 }, [0 x i64] }, align 8
  %_99 = alloca i64*, align 8
  %iter2 = alloca { i64*, i64* }, align 8
  %_83 = alloca { [0 x i64], { [0 x i8]*, i64 }, [0 x i64], { [0 x i8]*, i64 }, [0 x i64] }, align 8
  %_67 = alloca { [0 x i64], { [0 x i8]*, i64 }, [0 x i64], { [0 x i8]*, i64 }, [0 x i64] }, align 8
  %_56 = alloca i64*, align 8
  %iter1 = alloca { i64*, i64* }, align 8
  %target = alloca { [0 x i8]*, i64 }, align 8
  %_44 = alloca { i64, i64 }, align 8
  %result = alloca %"alloc::vec::Vec<u8>", align 8
  %_18 = alloca i64*, align 8
  %_8 = alloca i64*, align 8
  %iter = alloca { i64*, i64* }, align 8
  %slice = alloca { [0 x %"alloc::string::String"]*, i64 }, align 8
  %7 = getelementptr inbounds { [0 x %"alloc::string::String"]*, i64 }, { [0 x %"alloc::string::String"]*, i64 }* %slice, i32 0, i32 0
  store [0 x %"alloc::string::String"]* %1, [0 x %"alloc::string::String"]** %7, align 8
  %8 = getelementptr inbounds { [0 x %"alloc::string::String"]*, i64 }, { [0 x %"alloc::string::String"]*, i64 }* %slice, i32 0, i32 1
  store i64 %2, i64* %8, align 8
; call core::slice::<impl [T]>::len
  %sep_len = call i64 @"_ZN4core5slice29_$LT$impl$u20$$u5b$T$u5d$$GT$3len17h77299b4caeb1f985E"([0 x i8]* noalias nonnull readonly align 1 %sep.0, i64 %sep.1)
  br label %bb2

bb1:                                              ; preds = %bb16
  %9 = bitcast { i8*, i32 }* %6 to i8**
  %10 = load i8*, i8** %9, align 8
  %11 = getelementptr inbounds { i8*, i32 }, { i8*, i32 }* %6, i32 0, i32 1
  %12 = load i32, i32* %11, align 8
  %13 = insertvalue { i8*, i32 } undef, i8* %10, 0
  %14 = insertvalue { i8*, i32 } %13, i32 %12, 1
  resume { i8*, i32 } %14

bb2:                                              ; preds = %start
  %15 = getelementptr inbounds { [0 x %"alloc::string::String"]*, i64 }, { [0 x %"alloc::string::String"]*, i64 }* %slice, i32 0, i32 0
  %_6.0 = load [0 x %"alloc::string::String"]*, [0 x %"alloc::string::String"]** %15, align 8, !nonnull !2
  %16 = getelementptr inbounds { [0 x %"alloc::string::String"]*, i64 }, { [0 x %"alloc::string::String"]*, i64 }* %slice, i32 0, i32 1
  %_6.1 = load i64, i64* %16, align 8
; call core::slice::<impl [T]>::iter
  %17 = call { i64*, i64* } @"_ZN4core5slice29_$LT$impl$u20$$u5b$T$u5d$$GT$4iter17h150d9ed34c34fac1E"([0 x %"alloc::string::String"]* noalias nonnull readonly align 8 %_6.0, i64 %_6.1)
  store { i64*, i64* } %17, { i64*, i64* }* %iter, align 8
  br label %bb3

bb3:                                              ; preds = %bb2
; call <core::slice::Iter<T> as core::iter::traits::iterator::Iterator>::next
  %18 = call align 8 dereferenceable_or_null(24) i64* @"_ZN85_$LT$core..slice..Iter$LT$T$GT$$u20$as$u20$core..iter..traits..iterator..Iterator$GT$4next17heca6c415c47948eaE"({ i64*, i64* }* align 8 dereferenceable(16) %iter)
  store i64* %18, i64** %_8, align 8
  br label %bb4

bb4:                                              ; preds = %bb3
  %19 = bitcast i64** %_8 to {}**
  %20 = load {}*, {}** %19, align 8
  %21 = icmp ule {}* %20, null
  %_10 = select i1 %21, i64 0, i64 1
  switch i64 %_10, label %bb6 [
    i64 0, label %bb5
    i64 1, label %bb7
  ]

bb5:                                              ; preds = %bb4
; call alloc::vec::Vec<T>::new
  call void @"_ZN5alloc3vec12Vec$LT$T$GT$3new17h3ff120c5514e352bE"(%"alloc::vec::Vec<u8>"* noalias nocapture sret dereferenceable(24) %0)
  br label %bb9

bb6:                                              ; preds = %bb4
  unreachable

bb7:                                              ; preds = %bb4
  %22 = bitcast i64** %_8 to %"alloc::string::String"**
  %first = load %"alloc::string::String"*, %"alloc::string::String"** %22, align 8, !nonnull !2
  %23 = bitcast { i64*, i64* }* %iter to i64**
  %start1.i = load i64*, i64** %23, align 8, !alias.scope !13, !nonnull !2
; call core::ptr::non_null::NonNull<T>::as_ptr
  %_5.i = call %"alloc::string::String"* @"_ZN4core3ptr8non_null16NonNull$LT$T$GT$6as_ptr17h52af5e6d23b86851E"(i64* nonnull %start1.i), !noalias !13
  store i64 24, i64* %3, align 8, !noalias !13
  %24 = load i64, i64* %3, align 8, !noalias !13
  %_7.i = icmp eq i64 %24, 0
  br i1 %_7.i, label %bb4.i, label %bb3.i

bb3.i:                                            ; preds = %bb7
  %25 = getelementptr inbounds { i64*, i64* }, { i64*, i64* }* %iter, i32 0, i32 1
  %26 = bitcast i64** %25 to %"alloc::string::String"**
  %_16.i = load %"alloc::string::String"*, %"alloc::string::String"** %26, align 8, !alias.scope !13
  %_15.i = ptrtoint %"alloc::string::String"* %_16.i to i64
; call core::ptr::non_null::NonNull<T>::as_ptr
  %_18.i = call %"alloc::string::String"* @"_ZN4core3ptr8non_null16NonNull$LT$T$GT$6as_ptr17h52af5e6d23b86851E"(i64* nonnull %start1.i), !noalias !13
  %_17.i = ptrtoint %"alloc::string::String"* %_18.i to i64
  %27 = sub nuw i64 %_15.i, %_17.i
  store i64 %27, i64* %4, align 8, !noalias !13
  %diff.i = load i64, i64* %4, align 8, !noalias !13
  %28 = udiv exact i64 %diff.i, %24
  store i64 %28, i64* %5, align 8, !noalias !13
  br label %"_ZN96_$LT$core..slice..Iter$LT$T$GT$$u20$as$u20$core..iter..traits..exact_size..ExactSizeIterator$GT$3len17h8579e5f47ee4f25eE.exit"

bb4.i:                                            ; preds = %bb7
  %29 = getelementptr inbounds { i64*, i64* }, { i64*, i64* }* %iter, i32 0, i32 1
  %30 = bitcast i64** %29 to %"alloc::string::String"**
  %_10.i = load %"alloc::string::String"*, %"alloc::string::String"** %30, align 8, !alias.scope !13
  %_9.i = ptrtoint %"alloc::string::String"* %_10.i to i64
; call core::ptr::non_null::NonNull<T>::as_ptr
  %_12.i = call %"alloc::string::String"* @"_ZN4core3ptr8non_null16NonNull$LT$T$GT$6as_ptr17h52af5e6d23b86851E"(i64* nonnull %start1.i), !noalias !13
  %_11.i = ptrtoint %"alloc::string::String"* %_12.i to i64
; call core::num::<impl usize>::wrapping_sub
  %31 = call i64 @"_ZN4core3num23_$LT$impl$u20$usize$GT$12wrapping_sub17h283a835cc3a04a13E"(i64 %_9.i, i64 %_11.i), !noalias !13
  store i64 %31, i64* %5, align 8, !noalias !13
  br label %"_ZN96_$LT$core..slice..Iter$LT$T$GT$$u20$as$u20$core..iter..traits..exact_size..ExactSizeIterator$GT$3len17h8579e5f47ee4f25eE.exit"

"_ZN96_$LT$core..slice..Iter$LT$T$GT$$u20$as$u20$core..iter..traits..exact_size..ExactSizeIterator$GT$3len17h8579e5f47ee4f25eE.exit": ; preds = %bb4.i, %bb3.i
  %32 = load i64, i64* %5, align 8, !noalias !13
  br label %bb10

bb8:                                              ; preds = %bb9, %bb129
  ret void

bb9:                                              ; preds = %bb5
  br label %bb8

bb10:                                             ; preds = %"_ZN96_$LT$core..slice..Iter$LT$T$GT$$u20$as$u20$core..iter..traits..exact_size..ExactSizeIterator$GT$3len17h8579e5f47ee4f25eE.exit"
; call core::num::<impl usize>::checked_mul
  %33 = call { i64, i64 } @"_ZN4core3num23_$LT$impl$u20$usize$GT$11checked_mul17ha7b9dc81a7be28ddE"(i64 %sep_len, i64 %32)
  %_14.0 = extractvalue { i64, i64 } %33, 0
  %_14.1 = extractvalue { i64, i64 } %33, 1
  br label %bb11

bb11:                                             ; preds = %bb10
  %34 = bitcast i64** %_18 to { [0 x %"alloc::string::String"]*, i64 }**
  store { [0 x %"alloc::string::String"]*, i64 }* %slice, { [0 x %"alloc::string::String"]*, i64 }** %34, align 8
  %35 = load i64*, i64** %_18, align 8, !nonnull !2
; call core::option::Option<T>::and_then
  %36 = call { i64, i64 } @"_ZN4core6option15Option$LT$T$GT$8and_then17h014fd268d82cd009E"(i64 %_14.0, i64 %_14.1, i64* noalias readonly align 8 dereferenceable(16) %35)
  %_13.0 = extractvalue { i64, i64 } %36, 0
  %_13.1 = extractvalue { i64, i64 } %36, 1
  br label %bb12

bb12:                                             ; preds = %bb11
; call core::option::Option<T>::expect
  %len = call i64 @"_ZN4core6option15Option$LT$T$GT$6expect17hd2b533468812d1e3E"(i64 %_13.0, i64 %_13.1, [0 x i8]* noalias nonnull readonly align 1 bitcast (<{ [53 x i8] }>* @alloc64 to [0 x i8]*), i64 53, %"core::panic::Location"* noalias readonly align 8 dereferenceable(24) bitcast (<{ i8*, [16 x i8] }>* @alloc66 to %"core::panic::Location"*))
  br label %bb13

bb13:                                             ; preds = %bb12
; call alloc::vec::Vec<T>::with_capacity
  call void @"_ZN5alloc3vec12Vec$LT$T$GT$13with_capacity17h1d9ccc39847f9084E"(%"alloc::vec::Vec<u8>"* noalias nocapture sret dereferenceable(24) %result, i64 %len)
  br label %bb14

bb14:                                             ; preds = %bb13
; invoke alloc::vec::Vec<T>::capacity
  %_26 = invoke i64 @"_ZN5alloc3vec12Vec$LT$T$GT$8capacity17h132f02faa481460dE"(%"alloc::vec::Vec<u8>"* noalias readonly align 8 dereferenceable(24) %result)
          to label %bb15 unwind label %cleanup

bb15:                                             ; preds = %bb14
  %_25 = icmp uge i64 %_26, %len
  %_24 = xor i1 %_25, true
  br i1 %_24, label %bb18, label %bb17

bb16:                                             ; preds = %cleanup
; call core::ptr::drop_in_place
  call void @_ZN4core3ptr13drop_in_place17h1aabeb5d265a4af7E(%"alloc::vec::Vec<u8>"* %result) #11
  br label %bb1

bb17:                                             ; preds = %bb15
; invoke alloc::str::<impl core::borrow::Borrow<str> for alloc::string::String>::borrow
  %37 = invoke { [0 x i8]*, i64 } @"_ZN5alloc3str83_$LT$impl$u20$core..borrow..Borrow$LT$str$GT$$u20$for$u20$alloc..string..String$GT$6borrow17he965a21634ee9205E"(%"alloc::string::String"* noalias readonly align 8 dereferenceable(24) %first)
          to label %bb19 unwind label %cleanup

bb18:                                             ; preds = %bb15
; invoke core::panicking::panic
  invoke void @_ZN4core9panicking5panic17hfb3ef93dcafb964cE([0 x i8]* noalias nonnull readonly align 1 bitcast (<{ [42 x i8] }>* @alloc67 to [0 x i8]*), i64 42, %"core::panic::Location"* noalias readonly align 8 dereferenceable(24) bitcast (<{ i8*, [16 x i8] }>* @alloc60 to %"core::panic::Location"*))
          to label %unreachable unwind label %cleanup

bb19:                                             ; preds = %bb17
  %_36.0 = extractvalue { [0 x i8]*, i64 } %37, 0
  %_36.1 = extractvalue { [0 x i8]*, i64 } %37, 1
; invoke core::str::<impl core::convert::AsRef<[u8]> for str>::as_ref
  %38 = invoke { [0 x i8]*, i64 } @"_ZN4core3str74_$LT$impl$u20$core..convert..AsRef$LT$$u5b$u8$u5d$$GT$$u20$for$u20$str$GT$6as_ref17h003ca99e7909b06cE"([0 x i8]* noalias nonnull readonly align 1 %_36.0, i64 %_36.1)
          to label %bb20 unwind label %cleanup

bb20:                                             ; preds = %bb19
  %_34.0 = extractvalue { [0 x i8]*, i64 } %38, 0
  %_34.1 = extractvalue { [0 x i8]*, i64 } %38, 1
; invoke alloc::vec::Vec<T>::extend_from_slice
  invoke void @"_ZN5alloc3vec12Vec$LT$T$GT$17extend_from_slice17h7786a134ebfe5cdcE"(%"alloc::vec::Vec<u8>"* align 8 dereferenceable(24) %result, [0 x i8]* noalias nonnull readonly align 1 %_34.0, i64 %_34.1)
          to label %bb21 unwind label %cleanup

bb21:                                             ; preds = %bb20
; invoke alloc::vec::Vec<T>::len
  %pos = invoke i64 @"_ZN5alloc3vec12Vec$LT$T$GT$3len17hb54001e0ccabec03E"(%"alloc::vec::Vec<u8>"* noalias readonly align 8 dereferenceable(24) %result)
          to label %bb22 unwind label %cleanup

bb22:                                             ; preds = %bb21
; invoke <alloc::vec::Vec<T> as core::ops::deref::DerefMut>::deref_mut
  %39 = invoke { [0 x i8]*, i64 } @"_ZN71_$LT$alloc..vec..Vec$LT$T$GT$$u20$as$u20$core..ops..deref..DerefMut$GT$9deref_mut17h357978740c74a370E"(%"alloc::vec::Vec<u8>"* align 8 dereferenceable(24) %result)
          to label %bb23 unwind label %cleanup

bb23:                                             ; preds = %bb22
  %_42.0 = extractvalue { [0 x i8]*, i64 } %39, 0
  %_42.1 = extractvalue { [0 x i8]*, i64 } %39, 1
  %40 = bitcast { i64, i64 }* %_44 to i64*
  store i64 %pos, i64* %40, align 8
  %41 = getelementptr inbounds { i64, i64 }, { i64, i64 }* %_44, i32 0, i32 1
  store i64 %len, i64* %41, align 8
  %42 = getelementptr inbounds { i64, i64 }, { i64, i64 }* %_44, i32 0, i32 0
  %43 = load i64, i64* %42, align 8
  %44 = getelementptr inbounds { i64, i64 }, { i64, i64 }* %_44, i32 0, i32 1
  %45 = load i64, i64* %44, align 8
; invoke core::slice::<impl [T]>::get_unchecked_mut
  %46 = invoke { [0 x i8]*, i64 } @"_ZN4core5slice29_$LT$impl$u20$$u5b$T$u5d$$GT$17get_unchecked_mut17h37cecbe3c1796b50E"([0 x i8]* nonnull align 1 %_42.0, i64 %_42.1, i64 %43, i64 %45)
          to label %bb24 unwind label %cleanup

bb24:                                             ; preds = %bb23
  %target.0 = extractvalue { [0 x i8]*, i64 } %46, 0
  %target.1 = extractvalue { [0 x i8]*, i64 } %46, 1
  %47 = getelementptr inbounds { [0 x i8]*, i64 }, { [0 x i8]*, i64 }* %target, i32 0, i32 0
  store [0 x i8]* %target.0, [0 x i8]** %47, align 8
  %48 = getelementptr inbounds { [0 x i8]*, i64 }, { [0 x i8]*, i64 }* %target, i32 0, i32 1
  store i64 %target.1, i64* %48, align 8
  %49 = getelementptr inbounds { i64*, i64* }, { i64*, i64* }* %iter, i32 0, i32 0
  %iter.0 = load i64*, i64** %49, align 8, !nonnull !2
  %50 = getelementptr inbounds { i64*, i64* }, { i64*, i64* }* %iter, i32 0, i32 1
  %iter.1 = load i64*, i64** %50, align 8
; invoke core::slice::<impl [T]>::len
  %_50 = invoke i64 @"_ZN4core5slice29_$LT$impl$u20$$u5b$T$u5d$$GT$3len17h77299b4caeb1f985E"([0 x i8]* noalias nonnull readonly align 1 %sep.0, i64 %sep.1)
          to label %bb25 unwind label %cleanup

bb25:                                             ; preds = %bb24
  switch i64 %_50, label %bb26 [
    i64 0, label %bb27
    i64 1, label %bb44
    i64 2, label %bb61
    i64 3, label %bb78
    i64 4, label %bb95
  ]

bb26:                                             ; preds = %bb25
; invoke <I as core::iter::traits::collect::IntoIterator>::into_iter
  %51 = invoke { i64*, i64* } @"_ZN63_$LT$I$u20$as$u20$core..iter..traits..collect..IntoIterator$GT$9into_iter17h91b2e74fac901b51E"(i64* nonnull %iter.0, i64* %iter.1)
          to label %bb112 unwind label %cleanup

bb27:                                             ; preds = %bb25
; invoke <I as core::iter::traits::collect::IntoIterator>::into_iter
  %52 = invoke { i64*, i64* } @"_ZN63_$LT$I$u20$as$u20$core..iter..traits..collect..IntoIterator$GT$9into_iter17h91b2e74fac901b51E"(i64* nonnull %iter.0, i64* %iter.1)
          to label %bb28 unwind label %cleanup

bb28:                                             ; preds = %bb27
